EXPORTS
 "_Z19quick_sort_pair_maxSt4pairIidES0_"
 "_ZN4Rcpp10RstreambufILb0EE4syncEv"
 "_ZN4Rcpp10RstreambufILb0EE6xsputnEPKcx"
 "_ZN4Rcpp10RstreambufILb0EE8overflowEi"
 "_ZN4Rcpp10RstreambufILb0EED0Ev"
 "_ZN4Rcpp10RstreambufILb0EED1Ev"
 "_ZN4Rcpp10RstreambufILb1EE4syncEv"
 "_ZN4Rcpp10RstreambufILb1EE6xsputnEPKcx"
 "_ZN4Rcpp10RstreambufILb1EE8overflowEi"
 "_ZN4Rcpp10RstreambufILb1EED0Ev"
 "_ZN4Rcpp10RstreambufILb1EED1Ev"
 "_ZN4Rcpp8RostreamILb0EED0Ev"
 "_ZN4Rcpp8RostreamILb0EED1Ev"
 "_ZN4Rcpp8RostreamILb1EED0Ev"
 "_ZN4Rcpp8RostreamILb1EED1Ev"
 "_ZTCN4Rcpp8RostreamILb0EEE0_So"
 "_ZTCN4Rcpp8RostreamILb1EEE0_So"
 "_ZTIN4Rcpp10RstreambufILb0EEE"
 "_ZTIN4Rcpp10RstreambufILb1EEE"
 "_ZTIN4Rcpp8RostreamILb0EEE"
 "_ZTIN4Rcpp8RostreamILb1EEE"
 "_ZTSN4Rcpp10RstreambufILb0EEE"
 "_ZTSN4Rcpp10RstreambufILb1EEE"
 "_ZTSN4Rcpp8RostreamILb0EEE"
 "_ZTSN4Rcpp8RostreamILb1EEE"
 "_ZTTN4Rcpp8RostreamILb0EEE"
 "_ZTTN4Rcpp8RostreamILb1EEE"
 "_ZTv0_n24_N4Rcpp8RostreamILb0EED0Ev"
 "_ZTv0_n24_N4Rcpp8RostreamILb0EED1Ev"
 "_ZTv0_n24_N4Rcpp8RostreamILb1EED0Ev"
 "_ZTv0_n24_N4Rcpp8RostreamILb1EED1Ev"
 "_ZTVN4Rcpp10RstreambufILb0EEE"
 "_ZTVN4Rcpp10RstreambufILb1EEE"
 "_ZTVN4Rcpp8RostreamILb0EEE"
 "_ZTVN4Rcpp8RostreamILb1EEE"
 "_ZN4Rcpp10RstreambufILb0EE4syncEv"
 "_ZN4Rcpp10RstreambufILb0EE6xsputnEPKcx"
 "_ZN4Rcpp10RstreambufILb0EE8overflowEi"
 "_ZN4Rcpp10RstreambufILb0EED0Ev"
 "_ZN4Rcpp10RstreambufILb0EED1Ev"
 "_ZN4Rcpp10RstreambufILb1EE4syncEv"
 "_ZN4Rcpp10RstreambufILb1EE6xsputnEPKcx"
 "_ZN4Rcpp10RstreambufILb1EE8overflowEi"
 "_ZN4Rcpp10RstreambufILb1EED0Ev"
 "_ZN4Rcpp10RstreambufILb1EED1Ev"
 "_ZN4Rcpp8RostreamILb0EED0Ev"
 "_ZN4Rcpp8RostreamILb0EED1Ev"
 "_ZN4Rcpp8RostreamILb1EED0Ev"
 "_ZN4Rcpp8RostreamILb1EED1Ev"
 "_ZTCN4Rcpp8RostreamILb0EEE0_So"
 "_ZTCN4Rcpp8RostreamILb1EEE0_So"
 "_ZTIN4Rcpp10RstreambufILb0EEE"
 "_ZTIN4Rcpp10RstreambufILb1EEE"
 "_ZTIN4Rcpp8RostreamILb0EEE"
 "_ZTIN4Rcpp8RostreamILb1EEE"
 "_ZTSN4Rcpp10RstreambufILb0EEE"
 "_ZTSN4Rcpp10RstreambufILb1EEE"
 "_ZTSN4Rcpp8RostreamILb0EEE"
 "_ZTSN4Rcpp8RostreamILb1EEE"
 "_ZTTN4Rcpp8RostreamILb0EEE"
 "_ZTTN4Rcpp8RostreamILb1EEE"
 "_ZTv0_n24_N4Rcpp8RostreamILb0EED0Ev"
 "_ZTv0_n24_N4Rcpp8RostreamILb0EED1Ev"
 "_ZTv0_n24_N4Rcpp8RostreamILb1EED0Ev"
 "_ZTv0_n24_N4Rcpp8RostreamILb1EED1Ev"
 "_ZTVN4Rcpp10RstreambufILb0EEE"
 "_ZTVN4Rcpp10RstreambufILb1EEE"
 "_ZTVN4Rcpp8RostreamILb0EEE"
 "_ZTVN4Rcpp8RostreamILb1EEE"
 "_ZN4Rcpp10RstreambufILb0EE4syncEv"
 "_ZN4Rcpp10RstreambufILb0EE6xsputnEPKcx"
 "_ZN4Rcpp10RstreambufILb0EE8overflowEi"
 "_ZN4Rcpp10RstreambufILb0EED0Ev"
 "_ZN4Rcpp10RstreambufILb0EED1Ev"
 "_ZN4Rcpp10RstreambufILb1EE4syncEv"
 "_ZN4Rcpp10RstreambufILb1EE6xsputnEPKcx"
 "_ZN4Rcpp10RstreambufILb1EE8overflowEi"
 "_ZN4Rcpp10RstreambufILb1EED0Ev"
 "_ZN4Rcpp10RstreambufILb1EED1Ev"
 "_ZN4Rcpp8RostreamILb0EED0Ev"
 "_ZN4Rcpp8RostreamILb0EED1Ev"
 "_ZN4Rcpp8RostreamILb1EED0Ev"
 "_ZN4Rcpp8RostreamILb1EED1Ev"
 "_ZTCN4Rcpp8RostreamILb0EEE0_So"
 "_ZTCN4Rcpp8RostreamILb1EEE0_So"
 "_ZTIN4Rcpp10RstreambufILb0EEE"
 "_ZTIN4Rcpp10RstreambufILb1EEE"
 "_ZTIN4Rcpp8RostreamILb0EEE"
 "_ZTIN4Rcpp8RostreamILb1EEE"
 "_ZTSN4Rcpp10RstreambufILb0EEE"
 "_ZTSN4Rcpp10RstreambufILb1EEE"
 "_ZTSN4Rcpp8RostreamILb0EEE"
 "_ZTSN4Rcpp8RostreamILb1EEE"
 "_ZTTN4Rcpp8RostreamILb0EEE"
 "_ZTTN4Rcpp8RostreamILb1EEE"
 "_ZTv0_n24_N4Rcpp8RostreamILb0EED0Ev"
 "_ZTv0_n24_N4Rcpp8RostreamILb0EED1Ev"
 "_ZTv0_n24_N4Rcpp8RostreamILb1EED0Ev"
 "_ZTv0_n24_N4Rcpp8RostreamILb1EED1Ev"
 "_ZTVN4Rcpp10RstreambufILb0EEE"
 "_ZTVN4Rcpp10RstreambufILb1EEE"
 "_ZTVN4Rcpp8RostreamILb0EEE"
 "_ZTVN4Rcpp8RostreamILb1EEE"
 "_BeSS_bessCpp"
 "_Z13get_last_callv"
 "_Z19string_to_try_errorRKSs"
 "_Z29rcpp_exception_to_r_conditionRKN4Rcpp9exceptionE"
 "_Z31exception_to_condition_templateISt9exceptionEP7SEXPRECRKT_b"
 "_ZGVZ20rcpp_get_stack_tracevE3fun"
 "_ZGVZ20rcpp_set_stack_traceP7SEXPRECE3fun"
 "_ZGVZ7dataptrP7SEXPRECE3fun"
 "_ZGVZ8demangleRKSsE3fun"
 "_ZGVZN4Rcpp8internal12exitRNGScopeEvE3fun"
 "_ZGVZN4Rcpp8internal13enterRNGScopeEvE3fun"
 "_ZN10tinyformat6detail10formatImplERSoPKcPKNS0_9FormatArgEi"
 "_ZN10tinyformat6detail15formatTruncatedIiEEvRSoRKT_i"
 "_ZN10tinyformat6detail21streamStateFromFormatERSoRbRiPKcPKNS0_9FormatArgES3_i"
 "_ZN10tinyformat6detail9FormatArg10formatImplIiEEvRSoPKcS5_iPKv"
 "_ZN10tinyformat6detail9FormatArg10formatImplIPKcEEvRSoS4_S4_iPKv"
 "_ZN10tinyformat6detail9FormatArg9toIntImplIiEEiPKv"
 "_ZN10tinyformat6detail9FormatArg9toIntImplIPKcEEiPKv"
 "_ZN10tinyformat6formatIIEEESsPKcDpRKT_"
 "_ZN10tinyformat6formatIIiEEESsPKcDpRKT_"
 "_ZN10tinyformat6formatIIPKcS2_EEESsS2_DpRKT_"
 "_ZN4Rcpp10eval_errorD0Ev"
 "_ZN4Rcpp10eval_errorD1Ev"
 "_ZN4Rcpp10RstreambufILb0EE4syncEv"
 "_ZN4Rcpp10RstreambufILb0EE6xsputnEPKcx"
 "_ZN4Rcpp10RstreambufILb0EE8overflowEi"
 "_ZN4Rcpp10RstreambufILb0EED0Ev"
 "_ZN4Rcpp10RstreambufILb0EED1Ev"
 "_ZN4Rcpp10RstreambufILb1EE4syncEv"
 "_ZN4Rcpp10RstreambufILb1EE6xsputnEPKcx"
 "_ZN4Rcpp10RstreambufILb1EE8overflowEi"
 "_ZN4Rcpp10RstreambufILb1EED0Ev"
 "_ZN4Rcpp10RstreambufILb1EED1Ev"
 "_ZN4Rcpp12not_a_matrixD0Ev"
 "_ZN4Rcpp12not_a_matrixD1Ev"
 "_ZN4Rcpp14not_compatibleC1IIiEEEPKcDpOT_"
 "_ZN4Rcpp14not_compatibleC1IIPKcS3_EEES3_DpOT_"
 "_ZN4Rcpp14not_compatibleD0Ev"
 "_ZN4Rcpp14not_compatibleD1Ev"
 "_ZN4Rcpp4stopERKSs"
 "_ZN4Rcpp4stopIIEEEvPKcDpOT_"
 "_ZN4Rcpp6r_castILi13EEEP7SEXPRECS2_"
 "_ZN4Rcpp6r_castILi14EEEP7SEXPRECS2_"
 "_ZN4Rcpp8internal10basic_castILi10EEEP7SEXPRECS3_"
 "_ZN4Rcpp8internal10basic_castILi13EEEP7SEXPRECS3_"
 "_ZN4Rcpp8internal10basic_castILi14EEEP7SEXPRECS3_"
 "_ZN4Rcpp8internal10resumeJumpEP7SEXPREC"
 "_ZN4Rcpp8internal12exitRNGScopeEv"
 "_ZN4Rcpp8internal12primitive_asIbEET_P7SEXPREC"
 "_ZN4Rcpp8internal12primitive_asIdEET_P7SEXPREC"
 "_ZN4Rcpp8internal12primitive_asIiEET_P7SEXPREC"
 "_ZN4Rcpp8internal21export_indexing__implIN5Eigen6MatrixIdLin1ELi1ELi0ELin1ELi1EEEdEEvP7SEXPRECRT_NS_6traits17integral_constantIbLb0EEE"
 "_ZN4Rcpp8internal21export_indexing__implIN5Eigen6MatrixIiLin1ELi1ELi0ELin1ELi1EEEiEEvP7SEXPRECRT_NS_6traits17integral_constantIbLb0EEE"
 "_ZN4Rcpp8internal21export_indexing__implIPddEEvP7SEXPRECRT_NS_6traits17integral_constantIbLb0EEE"
 "_ZN4Rcpp8internal3nthEP7SEXPRECi"
 "_ZN4Rcpp8RostreamILb0EED0Ev"
 "_ZN4Rcpp8RostreamILb0EED1Ev"
 "_ZN4Rcpp8RostreamILb1EED0Ev"
 "_ZN4Rcpp8RostreamILb1EED1Ev"
 "_ZN4Rcpp9exceptionD0Ev"
 "_ZN4Rcpp9exceptionD1Ev"
 "_ZN5Eigen8internal19throw_std_bad_allocEv"
 "_ZNK4Rcpp10eval_error4whatEv"
 "_ZNK4Rcpp12not_a_matrix4whatEv"
 "_ZNK4Rcpp14not_compatible4whatEv"
 "_ZNK4Rcpp9exception21copy_stack_trace_to_rEv"
 "_ZNK4Rcpp9exception4whatEv"
 "_ZNKSt5ctypeIcE8do_widenEc"
 "_ZNSt15basic_stringbufIcSt11char_traitsIcESaIcEED1Ev"
 "_ZTCN4Rcpp8RostreamILb0EEE0_So"
 "_ZTCN4Rcpp8RostreamILb1EEE0_So"
 "_ZTIN4Rcpp10eval_errorE"
 "_ZTIN4Rcpp10RstreambufILb0EEE"
 "_ZTIN4Rcpp10RstreambufILb1EEE"
 "_ZTIN4Rcpp12not_a_matrixE"
 "_ZTIN4Rcpp14not_compatibleE"
 "_ZTIN4Rcpp17LongjumpExceptionE"
 "_ZTIN4Rcpp8internal20InterruptedExceptionE"
 "_ZTIN4Rcpp8RostreamILb0EEE"
 "_ZTIN4Rcpp8RostreamILb1EEE"
 "_ZTIN4Rcpp9exceptionE"
 "_ZTISt9bad_alloc"
 "_ZTISt9exception"
 "_ZTSN4Rcpp10eval_errorE"
 "_ZTSN4Rcpp10RstreambufILb0EEE"
 "_ZTSN4Rcpp10RstreambufILb1EEE"
 "_ZTSN4Rcpp12not_a_matrixE"
 "_ZTSN4Rcpp14not_compatibleE"
 "_ZTSN4Rcpp17LongjumpExceptionE"
 "_ZTSN4Rcpp8internal20InterruptedExceptionE"
 "_ZTSN4Rcpp8RostreamILb0EEE"
 "_ZTSN4Rcpp8RostreamILb1EEE"
 "_ZTSN4Rcpp9exceptionE"
 "_ZTSSt9bad_alloc"
 "_ZTSSt9exception"
 "_ZTTN4Rcpp8RostreamILb0EEE"
 "_ZTTN4Rcpp8RostreamILb1EEE"
 "_ZTv0_n24_N4Rcpp8RostreamILb0EED0Ev"
 "_ZTv0_n24_N4Rcpp8RostreamILb0EED1Ev"
 "_ZTv0_n24_N4Rcpp8RostreamILb1EED0Ev"
 "_ZTv0_n24_N4Rcpp8RostreamILb1EED1Ev"
 "_ZTVN4Rcpp10eval_errorE"
 "_ZTVN4Rcpp10RstreambufILb0EEE"
 "_ZTVN4Rcpp10RstreambufILb1EEE"
 "_ZTVN4Rcpp12not_a_matrixE"
 "_ZTVN4Rcpp14not_compatibleE"
 "_ZTVN4Rcpp8RostreamILb0EEE"
 "_ZTVN4Rcpp8RostreamILb1EEE"
 "_ZTVN4Rcpp9exceptionE"
 "_ZZ20rcpp_get_stack_tracevE3fun"
 "_ZZ20rcpp_set_stack_traceP7SEXPRECE3fun"
 "_ZZ7dataptrP7SEXPRECE3fun"
 "_ZZ8demangleRKSsE3fun"
 "_ZZN4Rcpp8internal12exitRNGScopeEvE3fun"
 "_ZZN4Rcpp8internal13enterRNGScopeEvE3fun"
 "R_init_BeSS"
 "_Z7bessCppN5Eigen6MatrixIdLin1ELin1ELi0ELin1ELin1EEENS0_IdLin1ELi1ELi0ELin1ELi1EEEiS2_biiiiibibiS2_NS0_IiLin1ELi1ELi0ELin1ELi1EEES2_iiidddibiiS3_S3_d"
 "_ZGVZ7dataptrP7SEXPRECE3fun"
 "_ZGVZN5Eigen8internal20manage_caching_sizesENS_6ActionEPxS2_S2_E12m_cacheSizes"
 "_ZGVZN5Eigen8internal4pexpIU8__vectordEET_RKS3_E10p4i_1023_0"
 "_ZN10tinyformat6detail10formatImplERSoPKcPKNS0_9FormatArgEi"
 "_ZN10tinyformat6detail15formatTruncatedISsEEvRSoRKT_i"
 "_ZN10tinyformat6detail21streamStateFromFormatERSoRbRiPKcPKNS0_9FormatArgES3_i"
 "_ZN10tinyformat6detail9FormatArg10formatImplIPKcEEvRSoS4_S4_iPKv"
 "_ZN10tinyformat6detail9FormatArg10formatImplISsEEvRSoPKcS5_iPKv"
 "_ZN10tinyformat6detail9FormatArg9toIntImplIPKcEEiPKv"
 "_ZN10tinyformat6detail9FormatArg9toIntImplISsEEiPKv"
 "_ZN10tinyformat6formatIIEEESsPKcDpRKT_"
 "_ZN10tinyformat6formatIIPKcS2_EEESsS2_DpRKT_"
 "_ZN10tinyformat6formatIISsEEESsPKcDpRKT_"
 "_ZN11GroupPdasLm17primary_model_fitEN5Eigen6MatrixIdLin1ELin1ELi0ELin1ELin1EEENS1_IdLin1ELi1ELi0ELin1ELi1EEES3_RS3_Rd"
 "_ZN11GroupPdasLm5get_AEN5Eigen6MatrixIdLin1ELin1ELi0ELin1ELin1EEENS1_IdLin1ELi1ELi0ELin1ELi1EEES3_diS3_NS1_IiLin1ELi1ELi0ELin1ELi1EEES4_iRS4_"
 "_ZN12GroupPdasCox17primary_model_fitEN5Eigen6MatrixIdLin1ELin1ELi0ELin1ELin1EEENS1_IdLin1ELi1ELi0ELin1ELi1EEES3_RS3_Rd"
 "_ZN12GroupPdasCox5get_AEN5Eigen6MatrixIdLin1ELin1ELi0ELin1ELin1EEENS1_IdLin1ELi1ELi0ELin1ELi1EEES3_diS3_NS1_IiLin1ELi1ELi0ELin1ELi1EEES4_iRS4_"
 "_ZN13PoissonMetric10train_lossEP9AlgorithmR4Data"
 "_ZN13PoissonMetric2icEP9AlgorithmR4Data"
 "_ZN13PoissonMetric9test_lossEP9AlgorithmR4Data"
 "_ZN14LogisticMetric10train_lossEP9AlgorithmR4Data"
 "_ZN14LogisticMetric2icEP9AlgorithmR4Data"
 "_ZN14LogisticMetric9test_lossEP9AlgorithmR4Data"
 "_ZN16GroupPdasPoisson17primary_model_fitEN5Eigen6MatrixIdLin1ELin1ELi0ELin1ELin1EEENS1_IdLin1ELi1ELi0ELin1ELi1EEES3_RS3_Rd"
 "_ZN16GroupPdasPoisson5get_AEN5Eigen6MatrixIdLin1ELin1ELi0ELin1ELin1EEENS1_IdLin1ELi1ELi0ELin1ELi1EEES3_diS3_NS1_IiLin1ELi1ELi0ELin1ELi1EEES4_iRS4_"
 "_ZN17GroupPdasLogistic17primary_model_fitEN5Eigen6MatrixIdLin1ELin1ELi0ELin1ELin1EEENS1_IdLin1ELi1ELi0ELin1ELi1EEES3_RS3_Rd"
 "_ZN17GroupPdasLogistic5get_AEN5Eigen6MatrixIdLin1ELin1ELi0ELin1ELin1EEENS1_IdLin1ELi1ELi0ELin1ELi1EEES3_diS3_NS1_IiLin1ELi1ELi0ELin1ELi1EEES4_iRS4_"
 "_ZN4DataD1Ev"
 "_ZN4Rcpp10RstreambufILb0EE4syncEv"
 "_ZN4Rcpp10RstreambufILb0EE6xsputnEPKcx"
 "_ZN4Rcpp10RstreambufILb0EE8overflowEi"
 "_ZN4Rcpp10RstreambufILb0EED0Ev"
 "_ZN4Rcpp10RstreambufILb0EED1Ev"
 "_ZN4Rcpp10RstreambufILb1EE4syncEv"
 "_ZN4Rcpp10RstreambufILb1EE6xsputnEPKcx"
 "_ZN4Rcpp10RstreambufILb1EE8overflowEi"
 "_ZN4Rcpp10RstreambufILb1EED0Ev"
 "_ZN4Rcpp10RstreambufILb1EED1Ev"
 "_ZN4Rcpp14not_compatibleD0Ev"
 "_ZN4Rcpp14not_compatibleD1Ev"
 "_ZN4Rcpp18Rcpp_ReplaceObjectEP7SEXPRECS1_"
 "_ZN4Rcpp19index_out_of_boundsD0Ev"
 "_ZN4Rcpp19index_out_of_boundsD1Ev"
 "_ZN4Rcpp4stopERKSs"
 "_ZN4Rcpp6VectorILi19ENS_15PreserveStorageEE20push_back_name__implERKP7SEXPRECRKSsNS_6traits17integral_constantIbLb1EEE"
 "_ZN4Rcpp8internal10basic_castILi14EEEP7SEXPRECS3_"
 "_ZN4Rcpp8internal21export_indexing__implIN5Eigen6MatrixIdLin1ELi1ELi0ELin1ELi1EEEdEEvP7SEXPRECRT_NS_6traits17integral_constantIbLb0EEE"
 "_ZN4Rcpp8internal34primitive_range_wrap__impl__nocastIPKddEEP7SEXPRECT_S6_St26random_access_iterator_tag"
 "_ZN4Rcpp8internal34primitive_range_wrap__impl__nocastIPKiiEEP7SEXPRECT_S6_St26random_access_iterator_tag"
 "_ZN4Rcpp8RostreamILb0EED0Ev"
 "_ZN4Rcpp8RostreamILb0EED1Ev"
 "_ZN4Rcpp8RostreamILb1EED0Ev"
 "_ZN4Rcpp8RostreamILb1EED1Ev"
 "_ZN4Rcpp9exceptionD0Ev"
 "_ZN4Rcpp9exceptionD1Ev"
 "_ZN5Eigen10MatrixBaseINS_5BlockINS_6MatrixIdLi2ELi2ELi0ELi2ELi2EEELi2ELin1ELb1EEEE26applyHouseholderOnTheRightINS1_INS1_IS3_Li2ELi1ELb1EEELin1ELi1ELb0EEEEEvRKT_RKdPd"
 "_ZN5Eigen10MatrixBaseINS_5BlockINS_6MatrixIdLi2ELi2ELi0ELi2ELi2EEELin1ELin1ELb0EEEE25applyHouseholderOnTheLeftINS_11VectorBlockINS1_IS3_Li2ELi1ELb1EEELin1EEEEEvRKT_RKdPd"
 "_ZN5Eigen10MatrixBaseINS_5BlockINS_6MatrixIdLi2ELi2ELi0ELi2ELi2EEELin1ELin1ELb0EEEE25applyHouseholderOnTheLeftINS1_IKS3_Lin1ELi1ELb0EEEEEvRKT_RKdPd"
 "_ZN5Eigen10MatrixBaseINS_5BlockINS_6MatrixIdLi2ELi2ELi0ELi2ELi2EEELin1ELin1ELb0EEEE26applyHouseholderOnTheRightINS1_IKS3_Lin1ELi1ELb0EEEEEvRKT_RKdPd"
 "_ZN5Eigen10MatrixBaseINS_5BlockINS_6MatrixIdLi2ELi2ELi0ELi2ELi2EEELin1ELin1ELb0EEEE26applyHouseholderOnTheRightINS2_IdLi1ELi1ELi0ELi1ELi1EEEEEvRKT_RKdPd"
 "_ZN5Eigen10MatrixBaseINS_5BlockINS_6MatrixIdLi2ELi2ELi0ELi2ELi2EEELin1ELin1ELb0EEEE26applyHouseholderOnTheRightINS2_IdLi2ELi1ELi0ELi2ELi1EEEEEvRKT_RKdPd"
 "_ZN5Eigen10MatrixBaseINS_5BlockINS_6MatrixIdLin1ELi1ELi0ELin1ELi1EEELin1ELi1ELb0EEEE25applyHouseholderOnTheLeftINS1_IKNS2_IdLin1ELin1ELi0ELin1ELin1EEELin1ELi1ELb0EEEEEvRKT_RKdPd"
 "_ZN5Eigen10MatrixBaseINS_5BlockINS_6MatrixIdLin1ELin1ELi0ELin1ELin1EEELin1ELin1ELb0EEEE25applyHouseholderOnTheLeftINS_11VectorBlockINS1_IS3_Lin1ELi1ELb1EEELin1EEEEEvRKT_RKdPd"
 "_ZN5Eigen10MatrixBaseINS_5BlockINS_6MatrixIdLin1ELin1ELi0ELin1ELin1EEELin1ELin1ELb0EEEE25applyHouseholderOnTheLeftINS1_IKS3_Lin1ELi1ELb0EEEEEvRKT_RKdPd"
 "_ZN5Eigen10MatrixBaseINS_5BlockINS_6MatrixIdLin1ELin1ELi0ELin1ELin1EEELin1ELin1ELb0EEEE26applyHouseholderOnTheRightINS1_IKS3_Lin1ELi1ELb0EEEEEvRKT_RKdPd"
 "_ZN5Eigen10MatrixBaseINS_5BlockINS_6MatrixIdLin1ELin1ELi0ELin1ELin1EEELin1ELin1ELb0EEEE26applyHouseholderOnTheRightINS2_IdLi1ELi1ELi0ELi1ELi1EEEEEvRKT_RKdPd"
 "_ZN5Eigen10MatrixBaseINS_5BlockINS_6MatrixIdLin1ELin1ELi0ELin1ELin1EEELin1ELin1ELb0EEEE26applyHouseholderOnTheRightINS2_IdLi2ELi1ELi0ELi2ELi1EEEEEvRKT_RKdPd"
 "_ZN5Eigen10MatrixBaseINS_5BlockINS_6MatrixIdLin1ELin1ELi0ELin1ELin1EEELin1ELin1ELb1EEEE26applyHouseholderOnTheRightINS1_INS1_IS3_Lin1ELi1ELb1EEELin1ELi1ELb0EEEEEvRKT_RKdPd"
 "_ZN5Eigen10MatrixBaseINS_5BlockINS1_INS_6MatrixIdLin1ELin1ELi0ELin1ELin1EEELin1ELi1ELb1EEELin1ELi1ELb0EEEE22makeHouseholderInPlaceERdS7_"
 "_ZN5Eigen11EigenSolverINS_6MatrixIdLi2ELi2ELi0ELi2ELi2EEEE21doComputeEigenvectorsEv"
 "_ZN5Eigen11EigenSolverINS_6MatrixIdLi2ELi2ELi0ELi2ELi2EEEE7computeIS2_EERS3_RKNS_9EigenBaseIT_EEb"
 "_ZN5Eigen12DenseStorageIdLin1ELin1ELi1ELi0EEC1ERKS1_"
 "_ZN5Eigen12DenseStorageIdLin1ELin1ELin1ELi0EEC1ERKS1_"
 "_ZN5Eigen12DenseStorageIiLin1ELin1ELi1ELi0EEC1ERKS1_"
 "_ZN5Eigen14JacobiRotationIdE10makeGivensERKdS3_PdNS_8internal10false_typeE"
 "_ZN5Eigen15PlainObjectBaseINS_6MatrixIdLin1ELi1ELi0ELin1ELi1EEEE6resizeExx"
 "_ZN5Eigen15PlainObjectBaseINS_6MatrixIdLin1ELi1ELi0ELin1ELi1EEEEC2INS_12CwiseUnaryOpINS_8internal13scalar_exp_opIdEEKNS_12ArrayWrapperIS2_EEEEEERKNS_9DenseBaseIT_EE"
 "_ZN5Eigen15PlainObjectBaseINS_6MatrixIdLin1ELi1ELi0ELin1ELi1EEEEC2INS_12CwiseUnaryOpINS_8internal13scalar_log_opIdEEKNS_12ArrayWrapperIKNS_13CwiseBinaryOpINS6_20scalar_difference_opIddEEKS2_SD_EEEEEEEERKNS_9DenseBaseIT_EE"
 "_ZN5Eigen15PlainObjectBaseINS_6MatrixIdLin1ELi1ELi0ELin1ELi1EEEEC2INS_12CwiseUnaryOpINS_8internal13scalar_log_opIdEEKNS_12ArrayWrapperIS2_EEEEEERKNS_9DenseBaseIT_EE"
 "_ZN5Eigen15PlainObjectBaseINS_6MatrixIdLin1ELi1ELi0ELin1ELi1EEEEC2INS_13CwiseBinaryOpINS_8internal13scalar_sum_opIddEEKNS_7ProductINS1_IdLin1ELin1ELi0ELin1ELin1EEES2_Li0EEEKNS5_INS6_18scalar_quotient_opIddEEKNS5_INS6_20scalar_difference_opIddEEKS2_SH_EESH_EEEEEERKNS_9DenseBaseIT_EE"
 "_ZN5Eigen15PlainObjectBaseINS_6MatrixIdLin1ELi1ELi0ELin1ELi1EEEEC2INS_13CwiseBinaryOpINS_8internal13scalar_sum_opIddEEKNS_7ProductINS1_IdLin1ELin1ELi0ELin1ELin1EEES2_Li0EEEKS2_EEEERKNS_9DenseBaseIT_EE"
 "_ZN5Eigen15PlainObjectBaseINS_6MatrixIdLin1ELi1ELi0ELin1ELi1EEEEC2INS_13CwiseBinaryOpINS_8internal13scalar_sum_opIddEEKS2_S9_EEEERKNS_9DenseBaseIT_EE"
 "_ZN5Eigen15PlainObjectBaseINS_6MatrixIdLin1ELi1ELi0ELin1ELi1EEEEC2INS_13CwiseBinaryOpINS_8internal17scalar_product_opIddEEKNS_14CwiseNullaryOpINS6_18scalar_constant_opIdEES2_EEKNS9_ISB_KS2_EEEEEERKNS_9DenseBaseIT_EE"
 "_ZN5Eigen15PlainObjectBaseINS_6MatrixIdLin1ELi1ELi0ELin1ELi1EEEEC2INS_13CwiseBinaryOpINS_8internal17scalar_product_opIddEEKS2_KNS5_INS6_20scalar_difference_opIddEES9_S9_EEEEEERKNS_9DenseBaseIT_EE"
 "_ZN5Eigen15PlainObjectBaseINS_6MatrixIdLin1ELi1ELi0ELin1ELi1EEEEC2INS_14CwiseNullaryOpINS_8internal18scalar_constant_opIdEES2_EEEERKNS_9DenseBaseIT_EE"
 "_ZN5Eigen15PlainObjectBaseINS_6MatrixIdLin1ELi1ELi0ELin1ELi1EEEEC2INS_7ProductINS1_IdLin1ELin1ELi0ELin1ELin1EEES2_Li0EEEEERKNS_9DenseBaseIT_EE"
 "_ZN5Eigen15PlainObjectBaseINS_6MatrixIdLin1ELin1ELi0ELin1ELin1EEEE6resizeExx"
 "_ZN5Eigen15PlainObjectBaseINS_6MatrixIdLin1ELin1ELi0ELin1ELin1EEEEC2INS_14CwiseNullaryOpINS_8internal18scalar_constant_opIdEES2_EEEERKNS_9DenseBaseIT_EE"
 "_ZN5Eigen15PlainObjectBaseINS_6MatrixIdLin1ELin1ELi0ELin1ELin1EEEEC2INS_14CwiseNullaryOpINS_8internal18scalar_identity_opIdEES2_EEEERKNS_9DenseBaseIT_EE"
 "_ZN5Eigen15PlainObjectBaseINS_6MatrixIdLin1ELin1ELi0ELin1ELin1EEEEC2INS_14TriangularViewIKNS_14CwiseNullaryOpINS_8internal18scalar_constant_opIdEES2_EELj2EEEEERKNS_9EigenBaseIT_EE"
 "_ZN5Eigen15PlainObjectBaseINS_6MatrixIdLin1ELin1ELi0ELin1ELin1EEEEC2INS_5BlockIS2_Lin1ELin1ELb1EEEEERKNS_9DenseBaseIT_EE"
 "_ZN5Eigen15PlainObjectBaseINS_6MatrixIdLin1ELin1ELi0ELin1ELin1EEEEC2INS_5SolveINS_4LDLTIS2_Li1EEENS_14CwiseNullaryOpINS_8internal18scalar_identity_opIdEES2_EEEEEERKNS_9DenseBaseIT_EE"
 "_ZN5Eigen15PlainObjectBaseINS_6MatrixIdLin1ELin1ELi0ELin1ELin1EEEEC2INS_9TransposeIS2_EEEERKNS_9DenseBaseIT_EE"
 "_ZN5Eigen15PlainObjectBaseINS_6MatrixIdLin1ELin1ELi1ELin1ELin1EEEE6resizeExx"
 "_ZN5Eigen15PlainObjectBaseINS_6MatrixIiLin1ELi1ELi0ELin1ELi1EEEEC2INS_14CwiseNullaryOpINS_8internal18scalar_constant_opIiEES2_EEEERKNS_9DenseBaseIT_EE"
 "_ZN5Eigen19ColPivHouseholderQRINS_6MatrixIdLin1ELin1ELi0ELin1ELin1EEEE14computeInPlaceEv"
 "_ZN5Eigen19ColPivHouseholderQRINS_6MatrixIdLin1ELin1ELi0ELin1ELin1EEEED1Ev"
 "_ZN5Eigen23HessenbergDecompositionINS_6MatrixIdLi2ELi2ELi0ELi2ELi2EEEE8_computeERS2_RNS1_IdLi1ELi1ELi0ELi1ELi1EEERNS1_IdLi1ELi2ELi1ELi1ELi2EEE"
 "_ZN5Eigen23HessenbergDecompositionINS_6MatrixIdLin1ELin1ELi0ELin1ELin1EEEE8_computeERS2_RNS1_IdLin1ELi1ELi0ELin1ELi1EEERNS1_IdLi1ELin1ELi1ELi1ELin1EEE"
 "_ZN5Eigen4LDLTINS_6MatrixIdLin1ELin1ELi0ELin1ELin1EEELi1EE7computeINS_13CwiseBinaryOpINS_8internal13scalar_sum_opIddEEKNS5_INS6_17scalar_product_opIddEEKNS_14CwiseNullaryOpINS6_18scalar_constant_opIdEEKS2_EESE_EEKNS_7ProductINS_9TransposeIS2_EES2_Li0EEEEEEERS3_RKNS_9EigenBaseIT_EE"
 "_ZN5Eigen4LDLTINS_6MatrixIdLin1ELin1ELi0ELin1ELin1EEELi1EE7computeINS_13CwiseBinaryOpINS_8internal13scalar_sum_opIddEEKNS5_INS6_17scalar_product_opIddEEKNS_14CwiseNullaryOpINS6_18scalar_constant_opIdEEKS2_EESE_EEKNS_7ProductIS2_S2_Li0EEEEEEERS3_RKNS_9EigenBaseIT_EE"
 "_ZN5Eigen4LDLTINS_6MatrixIdLin1ELin1ELi0ELin1ELin1EEELi1EE7computeIS2_EERS3_RKNS_9EigenBaseIT_EE"
 "_ZN5Eigen4LDLTINS_6MatrixIdLin1ELin1ELi0ELin1ELin1EEELi1EEC1INS_13CwiseBinaryOpINS_8internal13scalar_sum_opIddEEKNS5_INS6_17scalar_product_opIddEEKNS_14CwiseNullaryOpINS6_18scalar_constant_opIdEEKS2_EESE_EEKNS_7ProductINS_9TransposeIS2_EES2_Li0EEEEEEERKNS_9EigenBaseIT_EE"
 "_ZN5Eigen4LDLTINS_6MatrixIdLin1ELin1ELi0ELin1ELin1EEELi1EEC1INS_13CwiseBinaryOpINS_8internal13scalar_sum_opIddEEKNS5_INS6_17scalar_product_opIddEEKNS_14CwiseNullaryOpINS6_18scalar_constant_opIdEEKS2_EESE_EEKNS_7ProductIS2_S2_Li0EEEEEEERKNS_9EigenBaseIT_EE"
 "_ZN5Eigen4LDLTINS_6MatrixIdLin1ELin1ELi0ELin1ELin1EEELi1EEC1IS2_EERKNS_9EigenBaseIT_EE"
 "_ZN5Eigen4LDLTINS_6MatrixIdLin1ELin1ELi0ELin1ELin1EEELi1EED1Ev"
 "_ZN5Eigen6MatrixIdLin1ELi1ELi0ELin1ELi1EEC1IxEERKT_"
 "_ZN5Eigen6MatrixIdLin1ELin1ELi0ELin1ELin1EEC1IxxEERKT_RKT0_"
 "_ZN5Eigen8internal10redux_implINS0_13scalar_sum_opIddEENS0_15redux_evaluatorINS_6MatrixIdLin1ELi1ELi0ELin1ELi1EEEEELi3ELi0EE3runERKS7_RKS3_"
 "_ZN5Eigen8internal11dot_nocheckINS_13CwiseBinaryOpINS0_13scalar_sum_opIddEEKNS2_INS0_17scalar_product_opIddEEKNS_6MatrixIdLin1ELi1ELi0ELin1ELi1EEES9_EEKNS2_IS6_KNS2_INS0_20scalar_difference_opIddEES9_S9_EES9_EEEES8_Lb0EE3runERKNS_10MatrixBaseISI_EERKNSK_IS8_EE"
 "_ZN5Eigen8internal11dot_nocheckINS_5BlockINS2_INS_6MatrixIdLi2ELi2ELi0ELi2ELi2EEELi1ELi2ELb0EEELi1ELin1ELb0EEENS2_INS2_IS4_Li2ELi1ELb1EEELin1ELi1ELb0EEELb1EE3runERKNS_10MatrixBaseIS6_EERKNSA_IS8_EE"
 "_ZN5Eigen8internal11gebp_kernelIddxNS0_16blas_data_mapperIdxLi0ELi0EEELi4ELi4ELb0ELb0EEclERKS3_PKdS8_xxxdxxxx"
 "_ZN5Eigen8internal12ldlt_inplaceILi1EE9unblockedINS_6MatrixIdLin1ELin1ELi0ELin1ELin1EEENS_14TranspositionsILin1ELin1EiEENS4_IdLin1ELi1ELi0ELin1ELi1EEEEEbRT_RT0_RT1_RNS0_10SignMatrixE"
 "_ZN5Eigen8internal13gemm_pack_lhsIdxNS0_22const_blas_data_mapperIdxLi0EEELi4ELi2ELi0ELb0ELb0EEclEPdRKS3_xxxx"
 "_ZN5Eigen8internal13gemm_pack_lhsIdxNS0_22const_blas_data_mapperIdxLi1EEELi4ELi2ELi1ELb0ELb0EEclEPdRKS3_xxxx"
 "_ZN5Eigen8internal13gemm_pack_rhsIdxNS0_16blas_data_mapperIdxLi0ELi0EEELi4ELi0ELb0ELb1EEclEPdRKS3_xxxx"
 "_ZN5Eigen8internal13gemm_pack_rhsIdxNS0_22const_blas_data_mapperIdxLi0EEELi4ELi0ELb0ELb0EEclEPdRKS3_xxxx"
 "_ZN5Eigen8internal13gemm_pack_rhsIdxNS0_22const_blas_data_mapperIdxLi1EEELi4ELi1ELb0ELb0EEclEPdRKS3_xxxx"
 "_ZN5Eigen8internal13isfinite_implIdEEbRKSt7complexIT_E"
 "_ZN5Eigen8internal14aligned_mallocEy"
 "_ZN5Eigen8internal15queryCacheSizesERiS1_S1_"
 "_ZN5Eigen8internal17product_evaluatorINS_7ProductINS_6MatrixIdLin1ELin1ELi0ELin1ELin1EEENS3_IdLin1ELi1ELi0ELin1ELi1EEELi0EEELi7ENS_10DenseShapeES7_ddEC2ERKS6_"
 "_ZN5Eigen8internal17product_evaluatorINS_7ProductINS_9TransposeIKNS_6MatrixIdLin1ELin1ELi0ELin1ELin1EEEEENS_13CwiseBinaryOpINS0_20scalar_difference_opIddEEKNS8_ISA_KNS4_IdLin1ELi1ELi0ELin1ELi1EEEKNS2_IS5_SB_Li0EEEEESC_EELi0EEELi7ENS_10DenseShapeESJ_ddEC2ERKSI_"
 "_ZN5Eigen8internal19gemv_dense_selectorILi2ELi1ELb1EE3runINS_12CwiseUnaryOpINS0_18scalar_opposite_opIdEEKNS_9TransposeIKNS_6MatrixIdLin1ELin1ELi0ELin1ELin1EEEEEEENS8_IdLin1ELi1ELi0ELin1ELi1EEESE_EEvRKT_RKT0_RT1_RKNSL_6ScalarE"
 "_ZN5Eigen8internal19gemv_dense_selectorILi2ELi1ELb1EE3runINS_9TransposeIKNS_5BlockINS5_INS_6MatrixIdLin1ELin1ELi0ELin1ELin1EEELin1ELin1ELb0EEELin1ELin1ELb0EEEEENS4_IKNS4_IKNS5_IKS7_Lin1ELi1ELb0EEEEEEENS4_INS_3MapINS6_IdLi1ELin1ELi1ELi1ELin1EEELi0ENS_6StrideILi0ELi0EEEEEEEEEvRKT_RKT0_RT1_RKNSU_6ScalarE"
 "_ZN5Eigen8internal19gemv_dense_selectorILi2ELi1ELb1EE3runINS_9TransposeIKNS_5BlockINS5_INS_6MatrixIdLin1ELin1ELi0ELin1ELin1EEELin1ELin1ELb0EEELin1ELin1ELb0EEEEENS4_IKNS4_IKNS5_INS5_IS7_Lin1ELi1ELb1EEELin1ELi1ELb0EEEEEEENS4_INS_3MapINS6_IdLi1ELin1ELi1ELi1ELin1EEELi0ENS_6StrideILi0ELi0EEEEEEEEEvRKT_RKT0_RT1_RKNSU_6ScalarE"
 "_ZN5Eigen8internal19gemv_dense_selectorILi2ELi1ELb1EE3runINS_9TransposeIKNS_6MatrixIdLin1ELin1ELi0ELin1ELin1EEEEENS5_IdLin1ELi1ELi0ELin1ELi1EEES9_EEvRKT_RKT0_RT1_RKNSG_6ScalarE"
 "_ZN5Eigen8internal19gemv_dense_selectorILi2ELi1ELb1EE3runINS_9TransposeINS_6MatrixIdLin1ELin1ELi0ELin1ELin1EEEEENS5_IdLin1ELi1ELi0ELin1ELi1EEES8_EEvRKT_RKT0_RT1_RKNSF_6ScalarE"
 "_ZN5Eigen8internal19matrix_sqrt_computeINS_6MatrixIdLin1ELin1ELi0ELin1ELin1EEELi0EE3runIS3_EEvRKS3_RT_"
 "_ZN5Eigen8internal19throw_std_bad_allocEv"
 "_ZN5Eigen8internal20generic_product_implINS_6MatrixIdLin1ELin1ELi0ELin1ELin1EEES3_NS_10DenseShapeES4_Li8EE13scaleAndAddToIS3_EEvRT_RKS3_SA_RKd"
 "_ZN5Eigen8internal20generic_product_implINS_7ProductINS_6MatrixIdLin1ELin1ELi0ELin1ELin1EEES4_Li0EEENS_9TransposeIKS4_EENS_10DenseShapeES9_Li8EE13scaleAndAddToINS3_IdLin1ELin1ELi1ELin1ELin1EEEEEvRT_RKS5_RKS8_RKd"
 "_ZN5Eigen8internal20generic_product_implINS_9TransposeINS_6MatrixIdLin1ELin1ELi0ELin1ELin1EEEEES4_NS_10DenseShapeES6_Li8EE13scaleAndAddToIS4_EEvRT_RKS5_RKS4_RKd"
 "_ZN5Eigen8internal20generic_product_implINS_9TransposeINS_6MatrixIdLin1ELin1ELi0ELin1ELin1EEEEES4_NS_10DenseShapeES6_Li8EE6evalToIS4_EEvRT_RKS5_RKS4_"
 "_ZN5Eigen8internal21dense_assignment_loopINS0_31generic_dense_assignment_kernelINS0_9evaluatorINS_5BlockINS_6MatrixIdLi2ELi2ELi0ELi2ELi2EEELin1ELin1ELb0EEEEENS3_INS_14CwiseNullaryOpINS0_18scalar_constant_opIdEENS5_IdLin1ELin1ELi0ELi2ELi2EEEEEEENS0_13mul_assign_opIddEELi0EEELi4ELi0EE3runERSH_"
 "_ZN5Eigen8internal21dense_assignment_loopINS0_31generic_dense_assignment_kernelINS0_9evaluatorINS_5BlockINS_6MatrixIdLin1ELin1ELi0ELin1ELin1EEELin1ELin1ELb0EEEEENS3_INS_14CwiseNullaryOpINS0_18scalar_constant_opIdEES6_EEEENS0_13mul_assign_opIddEELi0EEELi4ELi0EE3runERSG_"
 "_ZN5Eigen8internal21dense_assignment_loopINS0_31generic_dense_assignment_kernelINS0_9evaluatorINS_5BlockINS4_INS_6MatrixIdLi2ELi2ELi0ELi2ELi2EEELin1ELin1ELb0EEELin1ELin1ELb0EEEEENS3_INS_7ProductINS_13CwiseBinaryOpINS0_17scalar_product_opIddEEKNS_14CwiseNullaryOpINS0_18scalar_constant_opIdEEKNS5_IdLin1ELi1ELi0ELi2ELi1EEEEEKNS_3MapISH_Li0ENS_6StrideILi0ELi0EEEEEEENS_9TransposeIKNS4_IKS6_Lin1ELi1ELb0EEEEELi1EEEEENS0_13sub_assign_opIddEELi0EEELi4ELi0EE3runERS10_"
 "_ZN5Eigen8internal21dense_assignment_loopINS0_31generic_dense_assignment_kernelINS0_9evaluatorINS_5BlockINS4_INS_6MatrixIdLi2ELi2ELi0ELi2ELi2EEELin1ELin1ELb0EEELin1ELin1ELb0EEEEENS3_INS_7ProductINS_13CwiseBinaryOpINS0_17scalar_product_opIddEEKNS_14CwiseNullaryOpINS0_18scalar_constant_opIdEEKNS5_IdLin1ELi1ELi0ELi2ELi1EEEEEKNS4_INS4_IS6_Li2ELi1ELb1EEELin1ELi1ELb0EEEEENS_3MapINS5_IdLi1ELin1ELi1ELi1ELi2EEELi0ENS_6StrideILi0ELi0EEEEELi1EEEEENS0_13sub_assign_opIddEELi0EEELi4ELi0EE3runERSY_"
 "_ZN5Eigen8internal23triangular_solve_matrixIdxLi1ELi5ELb0ELi0ELi0EE3runExxPKdxPdxRNS0_15level3_blockingIddEE"
 "_ZN5Eigen8internal23triangular_solve_matrixIdxLi1ELi6ELb0ELi1ELi0EE3runExxPKdxPdxRNS0_15level3_blockingIddEE"
 "_ZN5Eigen8internal23triangular_solve_vectorIddxLi1ELi2ELb0ELi0EE3runExPKdxPd"
 "_ZN5Eigen8internal23triangular_solve_vectorIddxLi1ELi5ELb0ELi0EE3runExPKdxPd"
 "_ZN5Eigen8internal23triangular_solve_vectorIddxLi1ELi6ELb0ELi1EE3runExPKdxPd"
 "_ZN5Eigen8internal26call_dense_assignment_loopINS_5BlockINS_6MatrixIdLin1ELi1ELi0ELin1ELi1EEELin1ELi1ELb0EEES4_NS0_9assign_opIddEEEEvRT_RKT0_RKT1_"
 "_ZN5Eigen8internal26call_dense_assignment_loopINS_5BlockINS_6MatrixIdLin1ELin1ELi0ELin1ELin1EEELi1ELin1ELb0EEENS_13CwiseBinaryOpINS0_13scalar_sum_opIddEEKS5_S9_EENS0_9assign_opIddEEEEvRT_RKT0_RKT1_"
 "_ZN5Eigen8internal26call_dense_assignment_loopINS_5BlockINS_6MatrixIdLin1ELin1ELi0ELin1ELin1EEELi1ELin1ELb0EEENS_13CwiseBinaryOpINS0_17scalar_product_opIddEEKS5_KNS_14CwiseNullaryOpINS0_18scalar_constant_opIdEEKNS3_IdLi1ELin1ELi1ELi1ELin1EEEEEEENS0_9assign_opIddEEEEvRT_RKT0_RKT1_"
 "_ZN5Eigen8internal26call_dense_assignment_loopINS_5BlockINS_6MatrixIdLin1ELin1ELi0ELin1ELin1EEELin1ELi1ELb1EEENS_13CwiseBinaryOpINS0_18scalar_quotient_opIddEEKS5_KNS3_IdLin1ELi1ELi0ELin1ELi1EEEEENS0_9assign_opIddEEEEvRT_RKT0_RKT1_"
 "_ZN5Eigen8internal26call_dense_assignment_loopINS_5BlockINS_6MatrixIdLin1ELin1ELi0ELin1ELin1EEELin1ELin1ELb0EEENS_14CwiseNullaryOpINS0_18scalar_constant_opIdEES4_EENS0_13mul_assign_opIddEEEEvRT_RKT0_RKT1_"
 "_ZN5Eigen8internal26call_dense_assignment_loopINS_5BlockINS_6MatrixIdLin1ELin1ELi0ELin1ELin1EEELin1ELin1ELb1EEES4_NS0_9assign_opIddEEEEvRT_RKT0_RKT1_"
 "_ZN5Eigen8internal26call_dense_assignment_loopINS_6MatrixIdLin1ELi1ELi0ELin1ELi1EEENS_12CwiseUnaryOpINS0_13scalar_abs_opIdEEKS3_EENS0_9assign_opIddEEEEvRT_RKT0_RKT1_"
 "_ZN5Eigen8internal26call_dense_assignment_loopINS_6MatrixIdLin1ELi1ELi0ELin1ELi1EEENS_12CwiseUnaryOpINS0_13scalar_exp_opIdEEKNS_12ArrayWrapperIS3_EEEENS0_9assign_opIddEEEEvRT_RKT0_RKT1_"
 "_ZN5Eigen8internal26call_dense_assignment_loopINS_6MatrixIdLin1ELi1ELi0ELin1ELi1EEENS_12CwiseUnaryOpINS0_18scalar_opposite_opIdEEKNS_13CwiseBinaryOpINS0_18scalar_quotient_opIddEEKS3_SA_EEEENS0_9assign_opIddEEEEvRT_RKT0_RKT1_"
 "_ZN5Eigen8internal26call_dense_assignment_loopINS_6MatrixIdLin1ELi1ELi0ELin1ELi1EEENS_13CwiseBinaryOpINS0_13scalar_sum_opIddEEKNS_7ProductINS_12CwiseUnaryOpINS0_18scalar_opposite_opIdEEKNS_9TransposeIKNS2_IdLin1ELin1ELi0ELin1ELin1EEEEEEES3_Li0EEEKNS4_INS0_17scalar_product_opIddEEKNS_14CwiseNullaryOpINS0_18scalar_constant_opIdEEKS3_EESO_EEEENS0_9assign_opIddEEEEvRT_RKT0_RKT1_"
 "_ZN5Eigen8internal26call_dense_assignment_loopINS_6MatrixIdLin1ELi1ELi0ELin1ELi1EEENS_13CwiseBinaryOpINS0_13scalar_sum_opIddEEKNS_7ProductINS_9TransposeIKNS2_IdLin1ELin1ELi0ELin1ELin1EEEEES3_Li0EEEKNS4_INS0_17scalar_product_opIddEEKNS_14CwiseNullaryOpINS0_18scalar_constant_opIdEESA_EEKNSG_ISI_S9_EEEEEENS0_9assign_opIddEEEEvRT_RKT0_RKT1_"
 "_ZN5Eigen8internal26call_dense_assignment_loopINS_6MatrixIdLin1ELi1ELi0ELin1ELi1EEENS_13CwiseBinaryOpINS0_13scalar_sum_opIddEEKNS_7ProductINS_9TransposeIKNS4_INS0_20scalar_difference_opIddEEKNS2_IdLin1ELin1ELi0ELin1ELin1EEESC_EEEENS4_INS0_17scalar_product_opIddEEKS3_SI_EELi0EEEKNS4_ISH_KNS_14CwiseNullaryOpINS0_18scalar_constant_opIdEESI_EESI_EEEENS0_9assign_opIddEEEEvRT_RKT0_RKT1_"
 "_ZN5Eigen8internal26call_dense_assignment_loopINS_6MatrixIdLin1ELi1ELi0ELin1ELi1EEENS_13CwiseBinaryOpINS0_13scalar_sum_opIddEEKNS_7ProductINS2_IdLin1ELin1ELi0ELin1ELin1EEES3_Li0EEEKNS4_INS0_18scalar_quotient_opIddEEKNS4_INS0_20scalar_difference_opIddEEKS3_SF_EESF_EEEENS0_9assign_opIddEEEEvRT_RKT0_RKT1_"
 "_ZN5Eigen8internal26call_dense_assignment_loopINS_6MatrixIdLin1ELi1ELi0ELin1ELi1EEENS_13CwiseBinaryOpINS0_13scalar_sum_opIddEEKS3_S7_EENS0_9assign_opIddEEEEvRT_RKT0_RKT1_"
 "_ZN5Eigen8internal26call_dense_assignment_loopINS_6MatrixIdLin1ELi1ELi0ELin1ELi1EEENS_13CwiseBinaryOpINS0_17scalar_product_opIddEEKNS_12ArrayWrapperIS3_EEKNS_12CwiseUnaryOpINS0_13scalar_exp_opIdEES9_EEEENS0_9assign_opIddEEEEvRT_RKT0_RKT1_"
 "_ZN5Eigen8internal26call_dense_assignment_loopINS_6MatrixIdLin1ELi1ELi0ELin1ELi1EEENS_13CwiseBinaryOpINS0_17scalar_product_opIddEEKNS4_INS0_20scalar_difference_opIddEEKS3_S9_EES9_EENS0_9assign_opIddEEEEvRT_RKT0_RKT1_"
 "_ZN5Eigen8internal26call_dense_assignment_loopINS_6MatrixIdLin1ELi1ELi0ELin1ELi1EEENS_13CwiseBinaryOpINS0_17scalar_product_opIddEEKS3_KNS_12CwiseUnaryOpINS0_14scalar_sqrt_opIdEES7_EEEENS0_9assign_opIddEEEEvRT_RKT0_RKT1_"
 "_ZN5Eigen8internal26call_dense_assignment_loopINS_6MatrixIdLin1ELi1ELi0ELin1ELi1EEENS_13CwiseBinaryOpINS0_17scalar_product_opIddEEKS3_S7_EENS0_9assign_opIddEEEEvRT_RKT0_RKT1_"
 "_ZN5Eigen8internal26call_dense_assignment_loopINS_6MatrixIdLin1ELi1ELi0ELin1ELi1EEENS_13CwiseBinaryOpINS0_18scalar_quotient_opIddEEKNS_12ArrayWrapperIS3_EEKNS7_IKNS4_INS0_13scalar_sum_opIddEEKS3_SC_EEEEEENS0_9assign_opIddEEEEvRT_RKT0_RKT1_"
 "_ZN5Eigen8internal26call_dense_assignment_loopINS_6MatrixIdLin1ELi1ELi0ELin1ELi1EEENS_13CwiseBinaryOpINS0_20scalar_difference_opIddEEKNS_7ProductINS_9TransposeINS2_IdLin1ELin1ELi0ELin1ELin1EEEEES3_Li0EEEKNS4_INS0_17scalar_product_opIddEEKNS_14CwiseNullaryOpINS0_18scalar_constant_opIdEEKS3_EESI_EEEENS0_9assign_opIddEEEEvRT_RKT0_RKT1_"
 "_ZN5Eigen8internal26call_dense_assignment_loopINS_6MatrixIdLin1ELi1ELi0ELin1ELi1EEENS_13CwiseBinaryOpINS0_20scalar_difference_opIddEEKS3_KNS4_INS0_17scalar_product_opIddEEKNS_14CwiseNullaryOpINS0_18scalar_constant_opIdEES7_EES7_EEEENS0_9assign_opIddEEEEvRT_RKT0_RKT1_"
 "_ZN5Eigen8internal26call_dense_assignment_loopINS_6MatrixIdLin1ELi1ELi0ELin1ELi1EEENS_14CwiseNullaryOpINS0_18scalar_constant_opIdEES3_EENS0_9assign_opIddEEEEvRT_RKT0_RKT1_"
 "_ZN5Eigen8internal26call_dense_assignment_loopINS_6MatrixIdLin1ELi1ELi0ELin1ELi1EEES3_NS0_9assign_opIddEEEEvRT_RKT0_RKT1_"
 "_ZN5Eigen8internal26call_dense_assignment_loopINS_6MatrixIdLin1ELin1ELi0ELin1ELin1EEENS_13CwiseBinaryOpINS0_13scalar_sum_opIddEEKS3_KNS4_INS0_17scalar_product_opIddEEKNS_14CwiseNullaryOpINS0_18scalar_constant_opIdEES7_EES7_EEEENS0_9assign_opIddEEEEvRT_RKT0_RKT1_"
 "_ZN5Eigen8internal26call_dense_assignment_loopINS_6MatrixIdLin1ELin1ELi0ELin1ELin1EEENS_13CwiseBinaryOpINS0_17scalar_product_opIddEEKNS_12ArrayWrapperIS3_EEKNS_9ReplicateINS7_INS2_IdLin1ELi1ELi0ELin1ELi1EEEEELi1ELin1EEEEENS0_9assign_opIddEEEEvRT_RKT0_RKT1_"
 "_ZN5Eigen8internal26call_dense_assignment_loopINS_6MatrixIdLin1ELin1ELi0ELin1ELin1EEENS_13CwiseBinaryOpINS0_18scalar_quotient_opIddEEKNS_12ArrayWrapperIS3_EEKNS_9ReplicateINS7_INS2_IdLin1ELi1ELi0ELin1ELi1EEEEELi1ELin1EEEEENS0_9assign_opIddEEEEvRT_RKT0_RKT1_"
 "_ZN5Eigen8internal26call_dense_assignment_loopINS_6MatrixIdLin1ELin1ELi0ELin1ELin1EEENS_13CwiseBinaryOpINS0_20scalar_difference_opIddEEKNS_12ArrayWrapperIS3_EEKNS_12CwiseUnaryOpINS0_16scalar_square_opIdEES9_EEEENS0_9assign_opIddEEEEvRT_RKT0_RKT1_"
 "_ZN5Eigen8internal26call_dense_assignment_loopINS_6MatrixIdLin1ELin1ELi0ELin1ELin1EEENS_13CwiseBinaryOpINS0_20scalar_difference_opIddEEKNS_12ArrayWrapperIS3_EES9_EENS0_9assign_opIddEEEEvRT_RKT0_RKT1_"
 "_ZN5Eigen8internal26call_dense_assignment_loopINS_6MatrixIdLin1ELin1ELi0ELin1ELin1EEES3_NS0_9assign_opIddEEEEvRT_RKT0_RKT1_"
 "_ZN5Eigen8internal26call_dense_assignment_loopINS_6MatrixIiLin1ELi1ELi0ELin1ELi1EEENS_5BlockIS3_Lin1ELi1ELb0EEENS0_9assign_opIiiEEEEvRT_RKT0_RKT1_"
 "_ZN5Eigen8internal26call_dense_assignment_loopINS_6MatrixIiLin1ELi1ELi0ELin1ELi1EEES3_NS0_9assign_opIiiEEEEvRT_RKT0_RKT1_"
 "_ZN5Eigen8internal26triangular_solver_selectorIKNS_5BlockIKNS_6MatrixIdLi2ELi2ELi0ELi2ELi2EEELin1ELin1ELb0EEENS2_INS3_IdLi2ELi1ELi0ELi2ELi1EEELin1ELi1ELb0EEELi1ELi2ELi0ELi1EE3runERS7_RS9_"
 "_ZN5Eigen8internal26triangular_solver_selectorIKNS_5BlockIKNS_6MatrixIdLi2ELi2ELi0ELi2ELi2EEELin1ELin1ELb0EEENS2_INS3_IdLi2ELi1ELi0ELi2ELi1EEELin1ELi1ELb0EEELi1ELi5ELi0ELi1EE3runERS7_RS9_"
 "_ZN5Eigen8internal26triangular_solver_selectorIKNS_5BlockIKNS_6MatrixIdLi4ELi4ELi0ELi4ELi4EEELin1ELin1ELb0EEENS2_INS3_IdLi4ELi1ELi0ELi4ELi1EEELin1ELi1ELb0EEELi1ELi2ELi0ELi1EE3runERS7_RS9_"
 "_ZN5Eigen8internal26triangular_solver_selectorIKNS_5BlockIKNS_6MatrixIdLi4ELi4ELi0ELi4ELi4EEELin1ELin1ELb0EEENS2_INS3_IdLi4ELi1ELi0ELi4ELi1EEELin1ELi1ELb0EEELi1ELi5ELi0ELi1EE3runERS7_RS9_"
 "_ZN5Eigen8internal26triangular_solver_selectorIKNS_5BlockIKNS_6MatrixIdLin1ELin1ELi0ELin1ELin1EEELin1ELin1ELb0EEENS2_INS3_IdLin1ELi1ELi0ELin1ELi1EEELin1ELi1ELb0EEELi1ELi2ELi0ELi1EE3runERS7_RS9_"
 "_ZN5Eigen8internal26triangular_solver_selectorIKNS_6MatrixIdLin1ELin1ELi0ELin1ELin1EEENS2_IdLin1ELi1ELi0ELin1ELi1EEELi1ELi5ELi0ELi1EE3runERS4_RS5_"
 "_ZN5Eigen8internal26triangular_solver_selectorIKNS_9TransposeIKNS_6MatrixIdLin1ELin1ELi0ELin1ELin1EEEEENS3_IdLin1ELi1ELi0ELin1ELi1EEELi1ELi6ELi0ELi1EE3runERS7_RS8_"
 "_ZN5Eigen8internal29general_matrix_matrix_productIxdLi0ELb0EdLi0ELb0ELi0EE3runExxxPKdxS4_xPdxdRNS0_15level3_blockingIddEEPNS0_16GemmParallelInfoIxEE"
 "_ZN5Eigen8internal29general_matrix_matrix_productIxdLi0ELb0EdLi1ELb0ELi0EE3runExxxPKdxS4_xPdxdRNS0_15level3_blockingIddEEPNS0_16GemmParallelInfoIxEE"
 "_ZN5Eigen8internal29general_matrix_matrix_productIxdLi1ELb0EdLi0ELb0ELi0EE3runExxxPKdxS4_xPdxdRNS0_15level3_blockingIddEEPNS0_16GemmParallelInfoIxEE"
 "_ZN5Eigen8internal29general_matrix_vector_productIxdNS0_22const_blas_data_mapperIdxLi0EEELi0ELb0EdNS2_IdxLi1EEELb0ELi0EE3runExxRKS3_RKS4_Pdxd"
 "_ZN5Eigen8internal29general_matrix_vector_productIxdNS0_22const_blas_data_mapperIdxLi0EEELi0ELb0EdS3_Lb0ELi0EE3runExxRKS3_S6_Pdxd"
 "_ZN5Eigen8internal29general_matrix_vector_productIxdNS0_22const_blas_data_mapperIdxLi1EEELi1ELb0EdNS2_IdxLi0EEELb0ELi0EE3runExxRKS3_RKS4_Pdxd"
 "_ZN5Eigen8internal37evaluateProductBlockingSizesHeuristicIddLi1ExEEvRT2_S3_S3_S2_"
 "_ZN5Eigen8internal37evaluateProductBlockingSizesHeuristicIddLi4ExEEvRT2_S3_S3_S2_"
 "_ZN5Eigen8internal41matrix_sqrt_quasi_triangular_off_diagonalINS_6MatrixIdLin1ELin1ELi0ELin1ELin1EEES3_EEvRKT_RT0_"
 "_ZN5Eigen8internal47matrix_sqrt_quasi_triangular_2x2_diagonal_blockINS_6MatrixIdLin1ELin1ELi0ELin1ELin1EEES3_EEvRKT_NS4_5IndexERT0_"
 "_ZN5Eigen8internal51matrix_sqrt_quasi_triangular_1x1_off_diagonal_blockINS_6MatrixIdLin1ELin1ELi0ELin1ELin1EEES3_EEvRKT_NS4_5IndexES7_RT0_"
 "_ZN5Eigen8internal51matrix_sqrt_quasi_triangular_1x2_off_diagonal_blockINS_6MatrixIdLin1ELin1ELi0ELin1ELin1EEES3_EEvRKT_NS4_5IndexES7_RT0_"
 "_ZN5Eigen8internal51matrix_sqrt_quasi_triangular_2x1_off_diagonal_blockINS_6MatrixIdLin1ELin1ELi0ELin1ELin1EEES3_EEvRKT_NS4_5IndexES7_RT0_"
 "_ZN5Eigen8internal51matrix_sqrt_quasi_triangular_2x2_off_diagonal_blockINS_6MatrixIdLin1ELin1ELi0ELin1ELin1EEES3_EEvRKT_NS4_5IndexES7_RT0_"
 "_ZN5Eigen8internal53matrix_sqrt_quasi_triangular_solve_auxiliary_equationINS_6MatrixIdLi2ELi2ELi0ELi2ELi2EEEEEvRT_RKS4_S7_S7_"
 "_ZN5Eigen9DenseBaseINS_6MatrixIdLin1ELin1ELi0ELin1ELin1EEEE7setZeroEv"
 "_ZN5Eigen9FullPivLUINS_6MatrixIdLi2ELi2ELi0ELi2ELi2EEEE14computeInPlaceEv"
 "_ZN5Eigen9FullPivLUINS_6MatrixIdLi4ELi4ELi0ELi4ELi4EEEE14computeInPlaceEv"
 "_ZN5Eigen9RealSchurINS_6MatrixIdLi2ELi2ELi0ELi2ELi2EEEE15splitOffTwoRowsExbRKd"
 "_ZN5Eigen9RealSchurINS_6MatrixIdLi2ELi2ELi0ELi2ELi2EEEE20performFrancisQRStepExxxbRKNS1_IdLi3ELi1ELi0ELi3ELi1EEEPd"
 "_ZN5Eigen9RealSchurINS_6MatrixIdLi2ELi2ELi0ELi2ELi2EEEE21computeFromHessenbergINS_8internal40HessenbergDecompositionMatrixHReturnTypeIS2_EENS_19HouseholderSequenceIS2_NS1_IdLi1ELi1ELi0ELi1ELi1EEELi1EEEEERS3_RKT_RKT0_b"
 "_ZN5Eigen9RealSchurINS_6MatrixIdLi2ELi2ELi0ELi2ELi2EEEE7computeIS2_EERS3_RKNS_9EigenBaseIT_EEb"
 "_ZN5Eigen9RealSchurINS_6MatrixIdLin1ELin1ELi0ELin1ELin1EEEE15splitOffTwoRowsExbRKd"
 "_ZN5Eigen9RealSchurINS_6MatrixIdLin1ELin1ELi0ELin1ELin1EEEE20performFrancisQRStepExxxbRKNS1_IdLi3ELi1ELi0ELi3ELi1EEEPd"
 "_ZN5Eigen9RealSchurINS_6MatrixIdLin1ELin1ELi0ELin1ELin1EEEE21computeFromHessenbergINS_8internal40HessenbergDecompositionMatrixHReturnTypeIS2_EENS_19HouseholderSequenceIS2_NS1_IdLin1ELi1ELi0ELin1ELi1EEELi1EEEEERS3_RKT_RKT0_b"
 "_ZN5Eigen9RealSchurINS_6MatrixIdLin1ELin1ELi0ELin1ELin1EEEE7computeIS2_EERS3_RKNS_9EigenBaseIT_EEb"
 "_ZN6Metric16cal_cv_group_XTXER4Data"
 "_ZN6Metric22set_cv_train_test_maskEi"
 "_ZN8LmMetric10train_lossEP9AlgorithmR4Data"
 "_ZN8LmMetric2icEP9AlgorithmR4Data"
 "_ZN8LmMetric9test_lossEP9AlgorithmR4Data"
 "_ZN9Algorithm3fitEv"
 "_ZN9AlgorithmC2ER4Dataiii"
 "_ZN9CoxMetric10train_lossEP9AlgorithmR4Data"
 "_ZN9CoxMetric2icEP9AlgorithmR4Data"
 "_ZN9CoxMetric9test_lossEP9AlgorithmR4Data"
 "_ZNK10tinyformat6detail9FormatArg5toIntEv"
 "_ZNK4Rcpp14not_compatible4whatEv"
 "_ZNK4Rcpp19index_out_of_bounds4whatEv"
 "_ZNK4Rcpp6VectorILi19ENS_15PreserveStorageEE6offsetERKSs"
 "_ZNK4Rcpp9exception4whatEv"
 "_ZNK5Eigen10MatrixBaseINS_5BlockINS_6MatrixIdLin1ELi1ELi0ELin1ELi1EEELin1ELi1ELb0EEEE11squaredNormEv"
 "_ZNK5Eigen10MatrixBaseINS_5BlockINS1_INS_6MatrixIdLi2ELi2ELi0ELi2ELi2EEELi2ELi1ELb1EEELin1ELi1ELb0EEEE15makeHouseholderINS_11VectorBlockIS5_Lin1EEEEEvRT_RdSC_"
 "_ZNK5Eigen10MatrixBaseINS_5BlockINS1_INS_6MatrixIdLin1ELin1ELi0ELin1ELin1EEELin1ELi1ELb1EEELin1ELi1ELb0EEEE15makeHouseholderINS_11VectorBlockIS5_Lin1EEEEEvRT_RdSC_"
 "_ZNK5Eigen10MatrixBaseINS_6MatrixIdLi2ELi1ELi0ELi2ELi1EEEE15makeHouseholderINS1_IdLi1ELi1ELi0ELi1ELi1EEEEEvRT_RdS8_"
 "_ZNK5Eigen10MatrixBaseINS_6MatrixIdLi3ELi1ELi0ELi3ELi1EEEE15makeHouseholderINS1_IdLi2ELi1ELi0ELi2ELi1EEEEEvRT_RdS8_"
 "_ZNK5Eigen11EigenSolverINS_6MatrixIdLi2ELi2ELi0ELi2ELi2EEEE12eigenvectorsEv"
 "_ZNK5Eigen19ColPivHouseholderQRINS_6MatrixIdLin1ELin1ELi0ELin1ELin1EEEE11_solve_implINS_7ProductINS_9TransposeIKS2_EENS1_IdLin1ELi1ELi0ELin1ELi1EEELi0EEES9_EEvRKT_RT0_"
 "_ZNK5Eigen19HouseholderSequenceINS_6MatrixIdLi2ELi2ELi0ELi2ELi2EEENS1_IdLi1ELi1ELi0ELi1ELi1EEELi1EE6evalToIS2_NS1_IdLi2ELi1ELi0ELi2ELi1EEEEEvRT_RT0_"
 "_ZNK5Eigen19HouseholderSequenceINS_6MatrixIdLin1ELin1ELi0ELin1ELin1EEENS1_IdLin1ELi1ELi0ELin1ELi1EEELi1EE6evalToIS2_S3_EEvRT_RT0_"
 "_ZNK5Eigen4LDLTINS_6MatrixIdLin1ELin1ELi0ELin1ELin1EEELi1EE11_solve_implINS_14CwiseNullaryOpINS_8internal18scalar_identity_opIdEES2_EES2_EEvRKT_RT0_"
 "_ZNK5Eigen4LDLTINS_6MatrixIdLin1ELin1ELi0ELin1ELin1EEELi1EE11_solve_implINS_7ProductINS_9TransposeIS2_EENS1_IdLin1ELi1ELi0ELin1ELi1EEELi0EEES8_EEvRKT_RT0_"
 "_ZNK5Eigen4LDLTINS_6MatrixIdLin1ELin1ELi0ELin1ELin1EEELi1EE11_solve_implINS_7ProductIS2_NS1_IdLin1ELi1ELi0ELin1ELi1EEELi0EEES6_EEvRKT_RT0_"
 "_ZNK5Eigen4LDLTINS_6MatrixIdLin1ELin1ELi0ELin1ELin1EEELi1EE11_solve_implINS1_IdLin1ELi1ELi0ELin1ELi1EEES5_EEvRKT_RT0_"
 "_ZNK5Eigen9DenseBaseINS_6MatrixIdLin1ELi1ELi0ELin1ELi1EEEE4meanEv"
 "_ZNK5Eigen9FullPivLUINS_6MatrixIdLi2ELi2ELi0ELi2ELi2EEEE11_solve_implINS_9TransposeINS1_IdLi1ELi2ELi1ELi1ELi2EEEEENS5_INS_5BlockINS1_IdLin1ELin1ELi0ELin1ELin1EEELi1ELi2ELb0EEEEEEEvRKT_RT0_"
 "_ZNK5Eigen9FullPivLUINS_6MatrixIdLi2ELi2ELi0ELi2ELi2EEEE11_solve_implINS1_IdLi2ELi1ELi0ELi2ELi1EEENS_5BlockINS1_IdLin1ELin1ELi0ELin1ELin1EEELi2ELi1ELb0EEEEEvRKT_RT0_"
 "_ZNK5Eigen9FullPivLUINS_6MatrixIdLi4ELi4ELi0ELi4ELi4EEEE11_solve_implINS1_IdLi4ELi1ELi0ELi4ELi1EEES5_EEvRKT_RT0_"
 "_ZNKSt5ctypeIcE8do_widenEc"
 "_ZNSt15basic_stringbufIcSt11char_traitsIcESaIcEED1Ev"
 "_ZNSt23mersenne_twister_engineIjLy32ELy624ELy397ELy31ELj2567483615ELy11ELj4294967295ELy7ELj2636928640ELy15ELj4022730752ELy18ELj1812433253EEclEv"
 "_ZNSt24uniform_int_distributionIyEclISt23mersenne_twister_engineIjLy32ELy624ELy397ELy31ELj2567483615ELy11ELj4294967295ELy7ELj2636928640ELy15ELj4022730752ELy18ELj1812433253EEEEyRT_RKNS0_10param_typeE"
 "_ZNSt6vectorIN5Eigen6MatrixIdLin1ELin1ELi0ELin1ELin1EEESaIS2_EEaSERKS4_"
 "_ZNSt6vectorIN5Eigen6MatrixIdLin1ELin1ELi0ELin1ELin1EEESaIS2_EEC1ERKS4_"
 "_ZNSt6vectorIN5Eigen6MatrixIdLin1ELin1ELi0ELin1ELin1EEESaIS2_EED1Ev"
 "_ZNSt6vectorIN5Eigen6MatrixIiLin1ELi1ELi0ELin1ELi1EEESaIS2_EEaSERKS4_"
 "_ZNSt6vectorIN5Eigen6MatrixIiLin1ELi1ELi0ELin1ELi1EEESaIS2_EED1Ev"
 "_ZNSt6vectorIS_IN5Eigen6MatrixIdLin1ELin1ELi0ELin1ELin1EEESaIS2_EESaIS4_EEaSERKS6_"
 "_ZNSt6vectorIS_IN5Eigen6MatrixIdLin1ELin1ELi0ELin1ELin1EEESaIS2_EESaIS4_EED1Ev"
 "_ZSt13__adjust_heapIPixiN9__gnu_cxx5__ops15_Iter_less_iterEEvT_T0_S5_T1_T2_"
 "_ZTCN4Rcpp8RostreamILb0EEE0_So"
 "_ZTCN4Rcpp8RostreamILb1EEE0_So"
 "_ZTI11GroupPdasLm"
 "_ZTI12GroupPdasCox"
 "_ZTI13PoissonMetric"
 "_ZTI14LogisticMetric"
 "_ZTI16GroupPdasPoisson"
 "_ZTI17GroupPdasLogistic"
 "_ZTI6Metric"
 "_ZTI8LmMetric"
 "_ZTI9Algorithm"
 "_ZTI9CoxMetric"
 "_ZTIN4Rcpp10RstreambufILb0EEE"
 "_ZTIN4Rcpp10RstreambufILb1EEE"
 "_ZTIN4Rcpp14not_compatibleE"
 "_ZTIN4Rcpp19index_out_of_boundsE"
 "_ZTIN4Rcpp8RostreamILb0EEE"
 "_ZTIN4Rcpp8RostreamILb1EEE"
 "_ZTIN4Rcpp9exceptionE"
 "_ZTISt9bad_alloc"
 "_ZTISt9exception"
 "_ZTS11GroupPdasLm"
 "_ZTS12GroupPdasCox"
 "_ZTS13PoissonMetric"
 "_ZTS14LogisticMetric"
 "_ZTS16GroupPdasPoisson"
 "_ZTS17GroupPdasLogistic"
 "_ZTS6Metric"
 "_ZTS8LmMetric"
 "_ZTS9Algorithm"
 "_ZTS9CoxMetric"
 "_ZTSN4Rcpp10RstreambufILb0EEE"
 "_ZTSN4Rcpp10RstreambufILb1EEE"
 "_ZTSN4Rcpp14not_compatibleE"
 "_ZTSN4Rcpp19index_out_of_boundsE"
 "_ZTSN4Rcpp8RostreamILb0EEE"
 "_ZTSN4Rcpp8RostreamILb1EEE"
 "_ZTSN4Rcpp9exceptionE"
 "_ZTSSt9bad_alloc"
 "_ZTSSt9exception"
 "_ZTTN4Rcpp8RostreamILb0EEE"
 "_ZTTN4Rcpp8RostreamILb1EEE"
 "_ZTv0_n24_N4Rcpp8RostreamILb0EED0Ev"
 "_ZTv0_n24_N4Rcpp8RostreamILb0EED1Ev"
 "_ZTv0_n24_N4Rcpp8RostreamILb1EED0Ev"
 "_ZTv0_n24_N4Rcpp8RostreamILb1EED1Ev"
 "_ZTV11GroupPdasLm"
 "_ZTV12GroupPdasCox"
 "_ZTV13PoissonMetric"
 "_ZTV14LogisticMetric"
 "_ZTV16GroupPdasPoisson"
 "_ZTV17GroupPdasLogistic"
 "_ZTV6Metric"
 "_ZTV8LmMetric"
 "_ZTV9Algorithm"
 "_ZTV9CoxMetric"
 "_ZTVN4Rcpp10RstreambufILb0EEE"
 "_ZTVN4Rcpp10RstreambufILb1EEE"
 "_ZTVN4Rcpp14not_compatibleE"
 "_ZTVN4Rcpp19index_out_of_boundsE"
 "_ZTVN4Rcpp8RostreamILb0EEE"
 "_ZTVN4Rcpp8RostreamILb1EEE"
 "_ZTVN4Rcpp9exceptionE"
 "_ZZ7dataptrP7SEXPRECE3fun"
 "_ZZN5Eigen8internal20manage_caching_sizesENS_6ActionEPxS2_S2_E12m_cacheSizes"
 "_ZZN5Eigen8internal4pexpIU8__vectordEET_RKS3_E10p4i_1023_0"
 "_Z10loglik_coxN5Eigen6MatrixIdLin1ELin1ELi0ELin1ELin1EEENS0_IdLin1ELi1ELi0ELin1ELi1EEES2_S2_"
 "_Z7cox_fitN5Eigen6MatrixIdLin1ELin1ELi0ELin1ELin1EEENS0_IdLin1ELi1ELi0ELin1ELi1EEEiiS2_"
 "_ZGVZN5Eigen8internal20manage_caching_sizesENS_6ActionEPxS2_S2_E12m_cacheSizes"
 "_ZGVZN5Eigen8internal4pexpIU8__vectordEET_RKS3_E10p4i_1023_0"
 "_ZN4Rcpp10RstreambufILb0EE4syncEv"
 "_ZN4Rcpp10RstreambufILb0EE6xsputnEPKcx"
 "_ZN4Rcpp10RstreambufILb0EE8overflowEi"
 "_ZN4Rcpp10RstreambufILb0EED0Ev"
 "_ZN4Rcpp10RstreambufILb0EED1Ev"
 "_ZN4Rcpp10RstreambufILb1EE4syncEv"
 "_ZN4Rcpp10RstreambufILb1EE6xsputnEPKcx"
 "_ZN4Rcpp10RstreambufILb1EE8overflowEi"
 "_ZN4Rcpp10RstreambufILb1EED0Ev"
 "_ZN4Rcpp10RstreambufILb1EED1Ev"
 "_ZN4Rcpp8RostreamILb0EED0Ev"
 "_ZN4Rcpp8RostreamILb0EED1Ev"
 "_ZN4Rcpp8RostreamILb1EED0Ev"
 "_ZN4Rcpp8RostreamILb1EED1Ev"
 "_ZN5Eigen12DenseStorageIdLin1ELin1ELi1ELi0EEC1ERKS1_"
 "_ZN5Eigen15PlainObjectBaseINS_6MatrixIdLin1ELi1ELi0ELin1ELi1EEEE6resizeExx"
 "_ZN5Eigen15PlainObjectBaseINS_6MatrixIdLin1ELi1ELi0ELin1ELi1EEEEC2INS_14CwiseNullaryOpINS_8internal18scalar_constant_opIdEES2_EEEERKNS_9DenseBaseIT_EE"
 "_ZN5Eigen15PlainObjectBaseINS_6MatrixIdLin1ELin1ELi0ELin1ELin1EEEE6resizeExx"
 "_ZN5Eigen4LDLTINS_6MatrixIdLin1ELin1ELi0ELin1ELin1EEELi1EE7computeIS2_EERS3_RKNS_9EigenBaseIT_EE"
 "_ZN5Eigen8internal11gebp_kernelIddxNS0_16blas_data_mapperIdxLi0ELi0EEELi4ELi4ELb0ELb0EEclERKS3_PKdS8_xxxdxxxx"
 "_ZN5Eigen8internal12ldlt_inplaceILi1EE9unblockedINS_6MatrixIdLin1ELin1ELi0ELin1ELin1EEENS_14TranspositionsILin1ELin1EiEENS4_IdLin1ELi1ELi0ELin1ELi1EEEEEbRT_RT0_RT1_RNS0_10SignMatrixE"
 "_ZN5Eigen8internal13gemm_pack_lhsIdxNS0_22const_blas_data_mapperIdxLi0EEELi4ELi2ELi0ELb0ELb0EEclEPdRKS3_xxxx"
 "_ZN5Eigen8internal13gemm_pack_rhsIdxNS0_22const_blas_data_mapperIdxLi0EEELi4ELi0ELb0ELb0EEclEPdRKS3_xxxx"
 "_ZN5Eigen8internal15queryCacheSizesERiS1_S1_"
 "_ZN5Eigen8internal19throw_std_bad_allocEv"
 "_ZN5Eigen8internal23triangular_solve_vectorIddxLi1ELi5ELb0ELi0EE3runExPKdxPd"
 "_ZN5Eigen8internal23triangular_solve_vectorIddxLi1ELi6ELb0ELi1EE3runExPKdxPd"
 "_ZN5Eigen8internal26call_dense_assignment_loopINS_6MatrixIdLin1ELi1ELi0ELin1ELi1EEES3_NS0_9assign_opIddEEEEvRT_RKT0_RKT1_"
 "_ZN5Eigen8internal26triangular_solver_selectorIKNS_6MatrixIdLin1ELin1ELi0ELin1ELin1EEENS2_IdLin1ELi1ELi0ELin1ELi1EEELi1ELi5ELi0ELi1EE3runERS4_RS5_"
 "_ZN5Eigen8internal26triangular_solver_selectorIKNS_9TransposeIKNS_6MatrixIdLin1ELin1ELi0ELin1ELin1EEEEENS3_IdLin1ELi1ELi0ELin1ELi1EEELi1ELi6ELi0ELi1EE3runERS7_RS8_"
 "_ZN5Eigen8internal29general_matrix_matrix_productIxdLi0ELb0EdLi0ELb0ELi0EE3runExxxPKdxS4_xPdxdRNS0_15level3_blockingIddEEPNS0_16GemmParallelInfoIxEE"
 "_ZN5Eigen8internal29general_matrix_vector_productIxdNS0_22const_blas_data_mapperIdxLi0EEELi0ELb0EdNS2_IdxLi1EEELb0ELi0EE3runExxRKS3_RKS4_Pdxd"
 "_ZN5Eigen8internal29general_matrix_vector_productIxdNS0_22const_blas_data_mapperIdxLi0EEELi0ELb0EdS3_Lb0ELi0EE3runExxRKS3_S6_Pdxd"
 "_ZN5Eigen8internal29general_matrix_vector_productIxdNS0_22const_blas_data_mapperIdxLi1EEELi1ELb0EdNS2_IdxLi0EEELb0ELi0EE3runExxRKS3_RKS4_Pdxd"
 "_ZN5Eigen8internal37evaluateProductBlockingSizesHeuristicIddLi1ExEEvRT2_S3_S3_S2_"
 "_ZNK5Eigen4LDLTINS_6MatrixIdLin1ELin1ELi0ELin1ELin1EEELi1EE11_solve_implINS1_IdLin1ELi1ELi0ELin1ELi1EEES5_EEvRKT_RT0_"
 "_ZTCN4Rcpp8RostreamILb0EEE0_So"
 "_ZTCN4Rcpp8RostreamILb1EEE0_So"
 "_ZTIN4Rcpp10RstreambufILb0EEE"
 "_ZTIN4Rcpp10RstreambufILb1EEE"
 "_ZTIN4Rcpp8RostreamILb0EEE"
 "_ZTIN4Rcpp8RostreamILb1EEE"
 "_ZTISt9bad_alloc"
 "_ZTISt9exception"
 "_ZTSN4Rcpp10RstreambufILb0EEE"
 "_ZTSN4Rcpp10RstreambufILb1EEE"
 "_ZTSN4Rcpp8RostreamILb0EEE"
 "_ZTSN4Rcpp8RostreamILb1EEE"
 "_ZTSSt9bad_alloc"
 "_ZTSSt9exception"
 "_ZTTN4Rcpp8RostreamILb0EEE"
 "_ZTTN4Rcpp8RostreamILb1EEE"
 "_ZTv0_n24_N4Rcpp8RostreamILb0EED0Ev"
 "_ZTv0_n24_N4Rcpp8RostreamILb0EED1Ev"
 "_ZTv0_n24_N4Rcpp8RostreamILb1EED0Ev"
 "_ZTv0_n24_N4Rcpp8RostreamILb1EED1Ev"
 "_ZTVN4Rcpp10RstreambufILb0EEE"
 "_ZTVN4Rcpp10RstreambufILb1EEE"
 "_ZTVN4Rcpp8RostreamILb0EEE"
 "_ZTVN4Rcpp8RostreamILb1EEE"
 "_ZZN5Eigen8internal20manage_caching_sizesENS_6ActionEPxS2_S2_E12m_cacheSizes"
 "_ZZN5Eigen8internal4pexpIU8__vectordEET_RKS3_E10p4i_1023_0"
 "_Z12loglik_logitN5Eigen6MatrixIdLin1ELin1ELi0ELin1ELin1EEENS0_IdLin1ELi1ELi0ELin1ELi1EEES2_iS2_"
 "_Z2piN5Eigen6MatrixIdLin1ELin1ELi0ELin1ELin1EEENS0_IdLin1ELi1ELi0ELin1ELi1EEES2_i"
 "_Z9logit_fitN5Eigen6MatrixIdLin1ELin1ELi0ELin1ELin1EEENS0_IdLin1ELi1ELi0ELin1ELi1EEEiiS2_"
 "_ZGVZN5Eigen8internal20manage_caching_sizesENS_6ActionEPxS2_S2_E12m_cacheSizes"
 "_ZGVZN5Eigen8internal4pexpIU8__vectordEET_RKS3_E10p4i_1023_0"
 "_ZN4Rcpp10RstreambufILb0EE4syncEv"
 "_ZN4Rcpp10RstreambufILb0EE6xsputnEPKcx"
 "_ZN4Rcpp10RstreambufILb0EE8overflowEi"
 "_ZN4Rcpp10RstreambufILb0EED0Ev"
 "_ZN4Rcpp10RstreambufILb0EED1Ev"
 "_ZN4Rcpp10RstreambufILb1EE4syncEv"
 "_ZN4Rcpp10RstreambufILb1EE6xsputnEPKcx"
 "_ZN4Rcpp10RstreambufILb1EE8overflowEi"
 "_ZN4Rcpp10RstreambufILb1EED0Ev"
 "_ZN4Rcpp10RstreambufILb1EED1Ev"
 "_ZN4Rcpp8RostreamILb0EED0Ev"
 "_ZN4Rcpp8RostreamILb0EED1Ev"
 "_ZN4Rcpp8RostreamILb1EED0Ev"
 "_ZN4Rcpp8RostreamILb1EED1Ev"
 "_ZN5Eigen12DenseStorageIdLin1ELin1ELi1ELi0EEC1ERKS1_"
 "_ZN5Eigen12DenseStorageIdLin1ELin1ELin1ELi0EEC1ERKS1_"
 "_ZN5Eigen15PlainObjectBaseINS_6MatrixIdLin1ELi1ELi0ELin1ELi1EEEE6resizeExx"
 "_ZN5Eigen15PlainObjectBaseINS_6MatrixIdLin1ELi1ELi0ELin1ELi1EEEEC2INS_12CwiseUnaryOpINS_8internal13scalar_log_opIdEEKNS_12ArrayWrapperIKNS_13CwiseBinaryOpINS6_20scalar_difference_opIddEEKS2_SD_EEEEEEEERKNS_9DenseBaseIT_EE"
 "_ZN5Eigen15PlainObjectBaseINS_6MatrixIdLin1ELi1ELi0ELin1ELi1EEEEC2INS_12CwiseUnaryOpINS_8internal13scalar_log_opIdEEKNS_12ArrayWrapperIS2_EEEEEERKNS_9DenseBaseIT_EE"
 "_ZN5Eigen15PlainObjectBaseINS_6MatrixIdLin1ELi1ELi0ELin1ELi1EEEEC2INS_13CwiseBinaryOpINS_8internal17scalar_product_opIddEEKS2_KNS5_INS6_20scalar_difference_opIddEES9_S9_EEEEEERKNS_9DenseBaseIT_EE"
 "_ZN5Eigen15PlainObjectBaseINS_6MatrixIdLin1ELi1ELi0ELin1ELi1EEEEC2INS_14CwiseNullaryOpINS_8internal18scalar_constant_opIdEES2_EEEERKNS_9DenseBaseIT_EE"
 "_ZN5Eigen15PlainObjectBaseINS_6MatrixIdLin1ELin1ELi0ELin1ELin1EEEEC2INS_14CwiseNullaryOpINS_8internal18scalar_constant_opIdEES2_EEEERKNS_9DenseBaseIT_EE"
 "_ZN5Eigen4LDLTINS_6MatrixIdLin1ELin1ELi0ELin1ELin1EEELi1EE7computeINS_7ProductINS_9TransposeIS2_EES2_Li0EEEEERS3_RKNS_9EigenBaseIT_EE"
 "_ZN5Eigen4LDLTINS_6MatrixIdLin1ELin1ELi0ELin1ELin1EEELi1EEC1INS_7ProductINS_9TransposeIS2_EES2_Li0EEEEERKNS_9EigenBaseIT_EE"
 "_ZN5Eigen4LDLTINS_6MatrixIdLin1ELin1ELi0ELin1ELin1EEELi1EED1Ev"
 "_ZN5Eigen8internal11dot_nocheckINS_13CwiseBinaryOpINS0_13scalar_sum_opIddEEKNS2_INS0_17scalar_product_opIddEEKNS_6MatrixIdLin1ELi1ELi0ELin1ELi1EEES9_EEKNS2_IS6_KNS2_INS0_20scalar_difference_opIddEES9_S9_EES9_EEEES8_Lb0EE3runERKNS_10MatrixBaseISI_EERKNSK_IS8_EE"
 "_ZN5Eigen8internal11gebp_kernelIddxNS0_16blas_data_mapperIdxLi0ELi0EEELi4ELi4ELb0ELb0EEclERKS3_PKdS8_xxxdxxxx"
 "_ZN5Eigen8internal12ldlt_inplaceILi1EE9unblockedINS_6MatrixIdLin1ELin1ELi0ELin1ELin1EEENS_14TranspositionsILin1ELin1EiEENS4_IdLin1ELi1ELi0ELin1ELi1EEEEEbRT_RT0_RT1_RNS0_10SignMatrixE"
 "_ZN5Eigen8internal13gemm_pack_lhsIdxNS0_22const_blas_data_mapperIdxLi1EEELi4ELi2ELi1ELb0ELb0EEclEPdRKS3_xxxx"
 "_ZN5Eigen8internal13gemm_pack_rhsIdxNS0_22const_blas_data_mapperIdxLi0EEELi4ELi0ELb0ELb0EEclEPdRKS3_xxxx"
 "_ZN5Eigen8internal15queryCacheSizesERiS1_S1_"
 "_ZN5Eigen8internal19gemv_dense_selectorILi2ELi1ELb1EE3runINS_9TransposeINS_6MatrixIdLin1ELin1ELi0ELin1ELin1EEEEENS5_IdLin1ELi1ELi0ELin1ELi1EEES8_EEvRKT_RKT0_RT1_RKNSF_6ScalarE"
 "_ZN5Eigen8internal19throw_std_bad_allocEv"
 "_ZN5Eigen8internal23triangular_solve_vectorIddxLi1ELi5ELb0ELi0EE3runExPKdxPd"
 "_ZN5Eigen8internal23triangular_solve_vectorIddxLi1ELi6ELb0ELi1EE3runExPKdxPd"
 "_ZN5Eigen8internal26call_dense_assignment_loopINS_6MatrixIdLin1ELi1ELi0ELin1ELi1EEENS_13CwiseBinaryOpINS0_13scalar_sum_opIddEEKNS_7ProductINS2_IdLin1ELin1ELi0ELin1ELin1EEES3_Li0EEEKNS4_INS0_18scalar_quotient_opIddEEKNS4_INS0_20scalar_difference_opIddEEKS3_SF_EESF_EEEENS0_9assign_opIddEEEEvRT_RKT0_RKT1_"
 "_ZN5Eigen8internal26call_dense_assignment_loopINS_6MatrixIdLin1ELi1ELi0ELin1ELi1EEENS_13CwiseBinaryOpINS0_17scalar_product_opIddEEKS3_S7_EENS0_9assign_opIddEEEEvRT_RKT0_RKT1_"
 "_ZN5Eigen8internal26triangular_solver_selectorIKNS_6MatrixIdLin1ELin1ELi0ELin1ELin1EEENS2_IdLin1ELi1ELi0ELin1ELi1EEELi1ELi5ELi0ELi1EE3runERS4_RS5_"
 "_ZN5Eigen8internal26triangular_solver_selectorIKNS_9TransposeIKNS_6MatrixIdLin1ELin1ELi0ELin1ELin1EEEEENS3_IdLin1ELi1ELi0ELin1ELi1EEELi1ELi6ELi0ELi1EE3runERS7_RS8_"
 "_ZN5Eigen8internal29general_matrix_matrix_productIxdLi1ELb0EdLi0ELb0ELi0EE3runExxxPKdxS4_xPdxdRNS0_15level3_blockingIddEEPNS0_16GemmParallelInfoIxEE"
 "_ZN5Eigen8internal29general_matrix_vector_productIxdNS0_22const_blas_data_mapperIdxLi0EEELi0ELb0EdNS2_IdxLi1EEELb0ELi0EE3runExxRKS3_RKS4_Pdxd"
 "_ZN5Eigen8internal29general_matrix_vector_productIxdNS0_22const_blas_data_mapperIdxLi0EEELi0ELb0EdS3_Lb0ELi0EE3runExxRKS3_S6_Pdxd"
 "_ZN5Eigen8internal29general_matrix_vector_productIxdNS0_22const_blas_data_mapperIdxLi1EEELi1ELb0EdNS2_IdxLi0EEELb0ELi0EE3runExxRKS3_RKS4_Pdxd"
 "_ZN5Eigen8internal37evaluateProductBlockingSizesHeuristicIddLi1ExEEvRT2_S3_S3_S2_"
 "_ZNK5Eigen4LDLTINS_6MatrixIdLin1ELin1ELi0ELin1ELin1EEELi1EE11_solve_implINS_7ProductINS_9TransposeIS2_EENS1_IdLin1ELi1ELi0ELin1ELi1EEELi0EEES8_EEvRKT_RT0_"
 "_ZTCN4Rcpp8RostreamILb0EEE0_So"
 "_ZTCN4Rcpp8RostreamILb1EEE0_So"
 "_ZTIN4Rcpp10RstreambufILb0EEE"
 "_ZTIN4Rcpp10RstreambufILb1EEE"
 "_ZTIN4Rcpp8RostreamILb0EEE"
 "_ZTIN4Rcpp8RostreamILb1EEE"
 "_ZTISt9bad_alloc"
 "_ZTISt9exception"
 "_ZTSN4Rcpp10RstreambufILb0EEE"
 "_ZTSN4Rcpp10RstreambufILb1EEE"
 "_ZTSN4Rcpp8RostreamILb0EEE"
 "_ZTSN4Rcpp8RostreamILb1EEE"
 "_ZTSSt9bad_alloc"
 "_ZTSSt9exception"
 "_ZTTN4Rcpp8RostreamILb0EEE"
 "_ZTTN4Rcpp8RostreamILb1EEE"
 "_ZTv0_n24_N4Rcpp8RostreamILb0EED0Ev"
 "_ZTv0_n24_N4Rcpp8RostreamILb0EED1Ev"
 "_ZTv0_n24_N4Rcpp8RostreamILb1EED0Ev"
 "_ZTv0_n24_N4Rcpp8RostreamILb1EED1Ev"
 "_ZTVN4Rcpp10RstreambufILb0EEE"
 "_ZTVN4Rcpp10RstreambufILb1EEE"
 "_ZTVN4Rcpp8RostreamILb0EEE"
 "_ZTVN4Rcpp8RostreamILb1EEE"
 "_ZZN5Eigen8internal20manage_caching_sizesENS_6ActionEPxS2_S2_E12m_cacheSizes"
 "_ZZN5Eigen8internal4pexpIU8__vectordEET_RKS3_E10p4i_1023_0"
 "_Z10Normalize3RN5Eigen6MatrixIdLin1ELin1ELi0ELin1ELin1EEERNS0_IdLin1ELi1ELi0ELin1ELi1EEES4_S4_"
 "_Z10Normalize4RN5Eigen6MatrixIdLin1ELin1ELi0ELin1ELin1EEERNS0_IdLin1ELi1ELi0ELin1ELi1EEES4_"
 "_Z9NormalizeRN5Eigen6MatrixIdLin1ELin1ELi0ELin1ELin1EEERNS0_IdLin1ELi1ELi0ELin1ELi1EEES4_S4_RdS4_"
 "_ZN4Rcpp10RstreambufILb0EE4syncEv"
 "_ZN4Rcpp10RstreambufILb0EE6xsputnEPKcx"
 "_ZN4Rcpp10RstreambufILb0EE8overflowEi"
 "_ZN4Rcpp10RstreambufILb0EED0Ev"
 "_ZN4Rcpp10RstreambufILb0EED1Ev"
 "_ZN4Rcpp10RstreambufILb1EE4syncEv"
 "_ZN4Rcpp10RstreambufILb1EE6xsputnEPKcx"
 "_ZN4Rcpp10RstreambufILb1EE8overflowEi"
 "_ZN4Rcpp10RstreambufILb1EED0Ev"
 "_ZN4Rcpp10RstreambufILb1EED1Ev"
 "_ZN4Rcpp8RostreamILb0EED0Ev"
 "_ZN4Rcpp8RostreamILb0EED1Ev"
 "_ZN4Rcpp8RostreamILb1EED0Ev"
 "_ZN4Rcpp8RostreamILb1EED1Ev"
 "_ZN5Eigen8internal19throw_std_bad_allocEv"
 "_ZTCN4Rcpp8RostreamILb0EEE0_So"
 "_ZTCN4Rcpp8RostreamILb1EEE0_So"
 "_ZTIN4Rcpp10RstreambufILb0EEE"
 "_ZTIN4Rcpp10RstreambufILb1EEE"
 "_ZTIN4Rcpp8RostreamILb0EEE"
 "_ZTIN4Rcpp8RostreamILb1EEE"
 "_ZTISt9bad_alloc"
 "_ZTISt9exception"
 "_ZTSN4Rcpp10RstreambufILb0EEE"
 "_ZTSN4Rcpp10RstreambufILb1EEE"
 "_ZTSN4Rcpp8RostreamILb0EEE"
 "_ZTSN4Rcpp8RostreamILb1EEE"
 "_ZTSSt9bad_alloc"
 "_ZTSSt9exception"
 "_ZTTN4Rcpp8RostreamILb0EEE"
 "_ZTTN4Rcpp8RostreamILb1EEE"
 "_ZTv0_n24_N4Rcpp8RostreamILb0EED0Ev"
 "_ZTv0_n24_N4Rcpp8RostreamILb0EED1Ev"
 "_ZTv0_n24_N4Rcpp8RostreamILb1EED0Ev"
 "_ZTv0_n24_N4Rcpp8RostreamILb1EED1Ev"
 "_ZTVN4Rcpp10RstreambufILb0EEE"
 "_ZTVN4Rcpp10RstreambufILb1EEE"
 "_ZTVN4Rcpp8RostreamILb0EEE"
 "_ZTVN4Rcpp8RostreamILb1EEE"
 "_Z10seq_searchR4DataP9AlgorithmP6MetricPdS5_iiddS5_RN5Eigen6MatrixIdLin1ELi1ELi0ELin1ELi1EEERdSA_SA_iRNS7_IdLin1ELin1ELi0ELin1ELin1EEE"
 "_Z15sequential_pathR4DataP9AlgorithmP6MetricN5Eigen6MatrixIiLin1ELi1ELi0ELin1ELi1EEENS6_IdLin1ELi1ELi0ELin1ELi1EEE"
 "_Z17cal_intersectionsPdS_iiddS_S_"
 "_Z17line_intersectionPA2_dS0_PdRb"
 "_Z21golden_section_searchR4DataP9AlgorithmP6MetricPdS5_iiddS5_RN5Eigen6MatrixIdLin1ELi1ELi0ELin1ELi1EEERdSA_SA_RNS7_IdLin1ELin1ELi0ELin1ELin1EEE"
 "_Z3detPdS_"
 "_Z3GDCii"
 "_Z4signd"
 "_Z7gs_pathR4DataP9AlgorithmP6Metriciiid"
 "_Z8pgs_pathR4DataP9AlgorithmP6Metriciiddii"
 "_ZGVZ7dataptrP7SEXPRECE3fun"
 "_ZN4Rcpp10RstreambufILb0EE4syncEv"
 "_ZN4Rcpp10RstreambufILb0EE6xsputnEPKcx"
 "_ZN4Rcpp10RstreambufILb0EE8overflowEi"
 "_ZN4Rcpp10RstreambufILb0EED0Ev"
 "_ZN4Rcpp10RstreambufILb0EED1Ev"
 "_ZN4Rcpp10RstreambufILb1EE4syncEv"
 "_ZN4Rcpp10RstreambufILb1EE6xsputnEPKcx"
 "_ZN4Rcpp10RstreambufILb1EE8overflowEi"
 "_ZN4Rcpp10RstreambufILb1EED0Ev"
 "_ZN4Rcpp10RstreambufILb1EED1Ev"
 "_ZN4Rcpp6VectorILi19ENS_15PreserveStorageEE16create__dispatchINS_6traits12named_objectIiEEEES2_NS4_17integral_constantIbLb1EEERKT_"
 "_ZN4Rcpp6VectorILi19ENS_15PreserveStorageEE16create__dispatchINS_6traits12named_objectIN5Eigen6MatrixIdLin1ELi1ELi0ELin1ELi1EEEEENS5_IdEESA_SA_NS5_INS7_IdLin1ELin1ELi0ELin1ELin1EEEEES9_S9_S9_EES2_NS4_17integral_constantIbLb1EEERKT_RKT0_RKT1_RKT2_RKT3_RKT4_RKT5_RKT6_"
 "_ZN4Rcpp6VectorILi19ENS_15PreserveStorageEE16create__dispatchINS_6traits12named_objectIN5Eigen6MatrixIdLin1ELi1ELi0ELin1ELi1EEEEENS5_IdEESA_SA_SA_NS5_INS7_IdLin1ELin1ELi0ELin1ELin1EEEEES9_S9_S9_S9_SC_EES2_NS4_17integral_constantIbLb1EEERKT_RKT0_RKT1_RKT2_RKT3_RKT4_RKT5_RKT6_RKT7_RKT8_RKT9_"
 "_ZN4Rcpp6VectorILi19ENS_15PreserveStorageEE16create__dispatchINS_6traits12named_objectIN5Eigen6MatrixIdLin1ELi1ELi0ELin1ELi1EEEEENS5_IdEESA_SA_SA_NS5_ISt6vectorINS7_IdLin1ELin1ELi0ELin1ELin1EEESaISC_EEEENS5_ISB_IS8_SaIS8_EEEESI_NS5_ISC_EEEES2_NS4_17integral_constantIbLb1EEERKT_RKT0_RKT1_RKT2_RKT3_RKT4_RKT5_RKT6_RKT7_"
 "_ZN4Rcpp8RostreamILb0EED0Ev"
 "_ZN4Rcpp8RostreamILb0EED1Ev"
 "_ZN4Rcpp8RostreamILb1EED0Ev"
 "_ZN4Rcpp8RostreamILb1EED1Ev"
 "_ZN5Eigen12DenseStorageIdLin1ELin1ELi1ELi0EEC1ERKS1_"
 "_ZN5Eigen12DenseStorageIdLin1ELin1ELin1ELi0EEC1ERKS1_"
 "_ZN5Eigen12DenseStorageIiLin1ELin1ELi1ELi0EEC1ERKS1_"
 "_ZN5Eigen15PlainObjectBaseINS_6MatrixIdLin1ELi1ELi0ELin1ELi1EEEE6resizeExx"
 "_ZN5Eigen15PlainObjectBaseINS_6MatrixIdLin1ELi1ELi0ELin1ELi1EEEEC2INS_14CwiseNullaryOpINS_8internal18scalar_constant_opIdEES2_EEEERKNS_9DenseBaseIT_EE"
 "_ZN5Eigen15PlainObjectBaseINS_6MatrixIdLin1ELin1ELi0ELin1ELin1EEEE6resizeExx"
 "_ZN5Eigen15PlainObjectBaseINS_6MatrixIdLin1ELin1ELi0ELin1ELin1EEEEC2INS_14CwiseNullaryOpINS_8internal18scalar_constant_opIdEES2_EEEERKNS_9DenseBaseIT_EE"
 "_ZN5Eigen6MatrixIdLin1ELi1ELi0ELin1ELi1EEC1INS_5BlockINS0_IdLin1ELin1ELi0ELin1ELin1EEELin1ELi1ELb1EEEEERKT_"
 "_ZN5Eigen6MatrixIdLin1ELi1ELi0ELin1ELi1EEC1INS_5BlockIS1_Lin1ELi1ELb0EEEEERKT_"
 "_ZN5Eigen8internal11dot_nocheckINS_5BlockINS_6MatrixIdLin1ELin1ELi0ELin1ELin1EEELin1ELi1ELb1EEENS3_IdLin1ELi1ELi0ELin1ELi1EEELb0EE3runERKNS_10MatrixBaseIS5_EERKNS8_IS6_EE"
 "_ZN5Eigen8internal14aligned_mallocEy"
 "_ZN5Eigen8internal19throw_std_bad_allocEv"
 "_ZN5Eigen8internal26call_dense_assignment_loopINS_5BlockINS_6MatrixIdLin1ELin1ELi0ELin1ELin1EEELin1ELi1ELb1EEENS_13CwiseBinaryOpINS0_17scalar_product_opIddEEKNS_14CwiseNullaryOpINS0_18scalar_constant_opIdEEKNS3_IdLin1ELi1ELi0ELin1ELi1EEEEEKNS6_INS0_18scalar_quotient_opIddEEKS5_SD_EEEENS0_9assign_opIddEEEEvRT_RKT0_RKT1_"
 "_ZN5Eigen8internal26call_dense_assignment_loopINS_5BlockINS_6MatrixIdLin1ELin1ELi0ELin1ELin1EEELin1ELi1ELb1EEENS3_IdLin1ELi1ELi0ELin1ELi1EEENS0_9assign_opIddEEEEvRT_RKT0_RKT1_"
 "_ZN5Eigen8internal26call_dense_assignment_loopINS_5BlockINS_6MatrixIdLin1ELin1ELi0ELin1ELin1EEELin1ELi1ELb1EEES5_NS0_9assign_opIddEEEEvRT_RKT0_RKT1_"
 "_ZN5Eigen8internal26call_dense_assignment_loopINS_6MatrixIdLin1ELi1ELi0ELin1ELi1EEENS_13CwiseBinaryOpINS0_17scalar_product_opIddEEKNS_14CwiseNullaryOpINS0_18scalar_constant_opIdEEKS3_EEKNS4_INS0_18scalar_quotient_opIddEESA_SA_EEEENS0_9assign_opIddEEEEvRT_RKT0_RKT1_"
 "_ZN5Eigen8internal26call_dense_assignment_loopINS_6MatrixIdLin1ELi1ELi0ELin1ELi1EEENS_14CwiseNullaryOpINS0_18scalar_constant_opIdEES3_EENS0_9assign_opIddEEEEvRT_RKT0_RKT1_"
 "_ZN5Eigen8internal26call_dense_assignment_loopINS_6MatrixIdLin1ELi1ELi0ELin1ELi1EEENS_5BlockINS2_IdLin1ELin1ELi0ELin1ELin1EEELin1ELi1ELb1EEENS0_9assign_opIddEEEEvRT_RKT0_RKT1_"
 "_ZN5Eigen8internal26call_dense_assignment_loopINS_6MatrixIdLin1ELi1ELi0ELin1ELi1EEES3_NS0_9assign_opIddEEEEvRT_RKT0_RKT1_"
 "_ZN5Eigen8internal26call_dense_assignment_loopINS_6MatrixIdLin1ELin1ELi0ELin1ELin1EEES3_NS0_9assign_opIddEEEEvRT_RKT0_RKT1_"
 "_ZN5Eigen8internal26call_dense_assignment_loopINS_6MatrixIiLin1ELi1ELi0ELin1ELi1EEES3_NS0_9assign_opIiiEEEEvRT_RKT0_RKT1_"
 "_ZN9Algorithm3fitEv"
 "_ZNKSt5ctypeIcE8do_widenEc"
 "_ZNSt6vectorIN5Eigen6MatrixIdLin1ELi1ELi0ELin1ELi1EEESaIS2_EED1Ev"
 "_ZNSt6vectorIN5Eigen6MatrixIdLin1ELin1ELi0ELin1ELin1EEESaIS2_EEaSERKS4_"
 "_ZNSt6vectorIN5Eigen6MatrixIdLin1ELin1ELi0ELin1ELin1EEESaIS2_EEC1ERKS4_"
 "_ZNSt6vectorIN5Eigen6MatrixIdLin1ELin1ELi0ELin1ELin1EEESaIS2_EED1Ev"
 "_ZTCN4Rcpp8RostreamILb0EEE0_So"
 "_ZTCN4Rcpp8RostreamILb1EEE0_So"
 "_ZTIN4Rcpp10RstreambufILb0EEE"
 "_ZTIN4Rcpp10RstreambufILb1EEE"
 "_ZTIN4Rcpp8RostreamILb0EEE"
 "_ZTIN4Rcpp8RostreamILb1EEE"
 "_ZTISt9bad_alloc"
 "_ZTISt9exception"
 "_ZTSN4Rcpp10RstreambufILb0EEE"
 "_ZTSN4Rcpp10RstreambufILb1EEE"
 "_ZTSN4Rcpp8RostreamILb0EEE"
 "_ZTSN4Rcpp8RostreamILb1EEE"
 "_ZTSSt9bad_alloc"
 "_ZTSSt9exception"
 "_ZTTN4Rcpp8RostreamILb0EEE"
 "_ZTTN4Rcpp8RostreamILb1EEE"
 "_ZTv0_n24_N4Rcpp8RostreamILb0EED0Ev"
 "_ZTv0_n24_N4Rcpp8RostreamILb0EED1Ev"
 "_ZTv0_n24_N4Rcpp8RostreamILb1EED0Ev"
 "_ZTv0_n24_N4Rcpp8RostreamILb1EED1Ev"
 "_ZTVN4Rcpp10RstreambufILb0EEE"
 "_ZTVN4Rcpp10RstreambufILb1EEE"
 "_ZTVN4Rcpp8RostreamILb0EEE"
 "_ZTVN4Rcpp8RostreamILb1EEE"
 "_ZZ7dataptrP7SEXPRECE3fun"
 "_Z11poisson_fitN5Eigen6MatrixIdLin1ELin1ELi0ELin1ELin1EEENS0_IdLin1ELi1ELi0ELin1ELi1EEEiiS2_"
 "_Z12loglik_poissN5Eigen6MatrixIdLin1ELin1ELi0ELin1ELin1EEENS0_IdLin1ELi1ELi0ELin1ELi1EEES2_iS2_"
 "_Z14loglik_poissonN5Eigen6MatrixIdLin1ELin1ELi0ELin1ELin1EEENS0_IdLin1ELi1ELi0ELin1ELi1EEES2_iS2_"
 "_Z15factorial_poissN5Eigen6MatrixIdLin1ELi1ELi0ELin1ELi1EEEi"
 "_ZGVZN5Eigen8internal20manage_caching_sizesENS_6ActionEPxS2_S2_E12m_cacheSizes"
 "_ZGVZN5Eigen8internal4pexpIU8__vectordEET_RKS3_E10p4i_1023_0"
 "_ZN4Rcpp10RstreambufILb0EE4syncEv"
 "_ZN4Rcpp10RstreambufILb0EE6xsputnEPKcx"
 "_ZN4Rcpp10RstreambufILb0EE8overflowEi"
 "_ZN4Rcpp10RstreambufILb0EED0Ev"
 "_ZN4Rcpp10RstreambufILb0EED1Ev"
 "_ZN4Rcpp10RstreambufILb1EE4syncEv"
 "_ZN4Rcpp10RstreambufILb1EE6xsputnEPKcx"
 "_ZN4Rcpp10RstreambufILb1EE8overflowEi"
 "_ZN4Rcpp10RstreambufILb1EED0Ev"
 "_ZN4Rcpp10RstreambufILb1EED1Ev"
 "_ZN4Rcpp8RostreamILb0EED0Ev"
 "_ZN4Rcpp8RostreamILb0EED1Ev"
 "_ZN4Rcpp8RostreamILb1EED0Ev"
 "_ZN4Rcpp8RostreamILb1EED1Ev"
 "_ZN5Eigen15PlainObjectBaseINS_6MatrixIdLin1ELi1ELi0ELin1ELi1EEEEC2INS_14CwiseNullaryOpINS_8internal18scalar_constant_opIdEES2_EEEERKNS_9DenseBaseIT_EE"
 "_ZN5Eigen15PlainObjectBaseINS_6MatrixIdLin1ELin1ELi0ELin1ELin1EEEEC2INS_14CwiseNullaryOpINS_8internal18scalar_constant_opIdEES2_EEEERKNS_9DenseBaseIT_EE"
 "_ZN5Eigen4LDLTINS_6MatrixIdLin1ELin1ELi0ELin1ELin1EEELi1EE7computeIS2_EERS3_RKNS_9EigenBaseIT_EE"
 "_ZN5Eigen8internal11gebp_kernelIddxNS0_16blas_data_mapperIdxLi0ELi0EEELi4ELi4ELb0ELb0EEclERKS3_PKdS8_xxxdxxxx"
 "_ZN5Eigen8internal12ldlt_inplaceILi1EE9unblockedINS_6MatrixIdLin1ELin1ELi0ELin1ELin1EEENS_14TranspositionsILin1ELin1EiEENS4_IdLin1ELi1ELi0ELin1ELi1EEEEEbRT_RT0_RT1_RNS0_10SignMatrixE"
 "_ZN5Eigen8internal13gemm_pack_lhsIdxNS0_22const_blas_data_mapperIdxLi1EEELi4ELi2ELi1ELb0ELb0EEclEPdRKS3_xxxx"
 "_ZN5Eigen8internal13gemm_pack_rhsIdxNS0_22const_blas_data_mapperIdxLi0EEELi4ELi0ELb0ELb0EEclEPdRKS3_xxxx"
 "_ZN5Eigen8internal15queryCacheSizesERiS1_S1_"
 "_ZN5Eigen8internal19gemv_dense_selectorILi2ELi1ELb1EE3runINS_9TransposeINS_6MatrixIdLin1ELin1ELi0ELin1ELin1EEEEENS_13CwiseBinaryOpINS0_17scalar_product_opIddEEKNS8_INS0_20scalar_difference_opIddEEKNS5_IdLin1ELi1ELi0ELin1ELi1EEESE_EESE_EESD_EEvRKT_RKT0_RT1_RKNSO_6ScalarE"
 "_ZN5Eigen8internal19throw_std_bad_allocEv"
 "_ZN5Eigen8internal23triangular_solve_vectorIddxLi1ELi5ELb0ELi0EE3runExPKdxPd"
 "_ZN5Eigen8internal23triangular_solve_vectorIddxLi1ELi6ELb0ELi1EE3runExPKdxPd"
 "_ZN5Eigen8internal26triangular_solver_selectorIKNS_6MatrixIdLin1ELin1ELi0ELin1ELin1EEENS2_IdLin1ELi1ELi0ELin1ELi1EEELi1ELi5ELi0ELi1EE3runERS4_RS5_"
 "_ZN5Eigen8internal26triangular_solver_selectorIKNS_9TransposeIKNS_6MatrixIdLin1ELin1ELi0ELin1ELin1EEEEENS3_IdLin1ELi1ELi0ELin1ELi1EEELi1ELi6ELi0ELi1EE3runERS7_RS8_"
 "_ZN5Eigen8internal29general_matrix_matrix_productIxdLi1ELb0EdLi0ELb0ELi0EE3runExxxPKdxS4_xPdxdRNS0_15level3_blockingIddEEPNS0_16GemmParallelInfoIxEE"
 "_ZN5Eigen8internal29general_matrix_vector_productIxdNS0_22const_blas_data_mapperIdxLi0EEELi0ELb0EdNS2_IdxLi1EEELb0ELi0EE3runExxRKS3_RKS4_Pdxd"
 "_ZN5Eigen8internal29general_matrix_vector_productIxdNS0_22const_blas_data_mapperIdxLi0EEELi0ELb0EdS3_Lb0ELi0EE3runExxRKS3_S6_Pdxd"
 "_ZN5Eigen8internal29general_matrix_vector_productIxdNS0_22const_blas_data_mapperIdxLi1EEELi1ELb0EdNS2_IdxLi0EEELb0ELi0EE3runExxRKS3_RKS4_Pdxd"
 "_ZN5Eigen8internal37evaluateProductBlockingSizesHeuristicIddLi1ExEEvRT2_S3_S3_S2_"
 "_ZNK5Eigen4LDLTINS_6MatrixIdLin1ELin1ELi0ELin1ELin1EEELi1EE11_solve_implINS1_IdLin1ELi1ELi0ELin1ELi1EEES5_EEvRKT_RT0_"
 "_ZTCN4Rcpp8RostreamILb0EEE0_So"
 "_ZTCN4Rcpp8RostreamILb1EEE0_So"
 "_ZTIN4Rcpp10RstreambufILb0EEE"
 "_ZTIN4Rcpp10RstreambufILb1EEE"
 "_ZTIN4Rcpp8RostreamILb0EEE"
 "_ZTIN4Rcpp8RostreamILb1EEE"
 "_ZTISt9bad_alloc"
 "_ZTISt9exception"
 "_ZTSN4Rcpp10RstreambufILb0EEE"
 "_ZTSN4Rcpp10RstreambufILb1EEE"
 "_ZTSN4Rcpp8RostreamILb0EEE"
 "_ZTSN4Rcpp8RostreamILb1EEE"
 "_ZTSSt9bad_alloc"
 "_ZTSSt9exception"
 "_ZTTN4Rcpp8RostreamILb0EEE"
 "_ZTTN4Rcpp8RostreamILb1EEE"
 "_ZTv0_n24_N4Rcpp8RostreamILb0EED0Ev"
 "_ZTv0_n24_N4Rcpp8RostreamILb0EED1Ev"
 "_ZTv0_n24_N4Rcpp8RostreamILb1EED0Ev"
 "_ZTv0_n24_N4Rcpp8RostreamILb1EED1Ev"
 "_ZTVN4Rcpp10RstreambufILb0EEE"
 "_ZTVN4Rcpp10RstreambufILb1EEE"
 "_ZTVN4Rcpp8RostreamILb0EEE"
 "_ZTVN4Rcpp8RostreamILb1EEE"
 "_ZZN5Eigen8internal20manage_caching_sizesENS_6ActionEPxS2_S2_E12m_cacheSizes"
 "_ZZN5Eigen8internal4pexpIU8__vectordEET_RKS3_E10p4i_1023_0"
 "_Z9screeningRN5Eigen6MatrixIdLin1ELin1ELi0ELin1ELin1EEERNS0_IdLin1ELi1ELi0ELin1ELi1EEES4_iiRNS0_IiLin1ELi1ELi0ELin1ELi1EEES6_"
 "_ZN4Rcpp10RstreambufILb0EE4syncEv"
 "_ZN4Rcpp10RstreambufILb0EE6xsputnEPKcx"
 "_ZN4Rcpp10RstreambufILb0EE8overflowEi"
 "_ZN4Rcpp10RstreambufILb0EED0Ev"
 "_ZN4Rcpp10RstreambufILb0EED1Ev"
 "_ZN4Rcpp10RstreambufILb1EE4syncEv"
 "_ZN4Rcpp10RstreambufILb1EE6xsputnEPKcx"
 "_ZN4Rcpp10RstreambufILb1EE8overflowEi"
 "_ZN4Rcpp10RstreambufILb1EED0Ev"
 "_ZN4Rcpp10RstreambufILb1EED1Ev"
 "_ZN4Rcpp8RostreamILb0EED0Ev"
 "_ZN4Rcpp8RostreamILb0EED1Ev"
 "_ZN4Rcpp8RostreamILb1EED0Ev"
 "_ZN4Rcpp8RostreamILb1EED1Ev"
 "_ZN5Eigen10MatrixBaseINS_5BlockINS_6MatrixIdLin1ELi1ELi0ELin1ELi1EEELin1ELi1ELb0EEEE25applyHouseholderOnTheLeftINS1_IKNS2_IdLin1ELin1ELi0ELin1ELin1EEELin1ELi1ELb0EEEEEvRKT_RKdPd"
 "_ZN5Eigen10MatrixBaseINS_5BlockINS_6MatrixIdLin1ELin1ELi0ELin1ELin1EEELin1ELin1ELb0EEEE25applyHouseholderOnTheLeftINS_11VectorBlockINS1_IS3_Lin1ELi1ELb1EEELin1EEEEEvRKT_RKdPd"
 "_ZN5Eigen19ColPivHouseholderQRINS_6MatrixIdLin1ELin1ELi0ELin1ELin1EEEE14computeInPlaceEv"
 "_ZN5Eigen8internal19gemv_dense_selectorILi2ELi1ELb1EE3runINS_9TransposeIKNS_5BlockINS5_INS_6MatrixIdLin1ELin1ELi0ELin1ELin1EEELin1ELin1ELb0EEELin1ELin1ELb0EEEEENS4_IKNS4_IKNS5_INS5_IS7_Lin1ELi1ELb1EEELin1ELi1ELb0EEEEEEENS4_INS_3MapINS6_IdLi1ELin1ELi1ELi1ELin1EEELi0ENS_6StrideILi0ELi0EEEEEEEEEvRKT_RKT0_RT1_RKNSU_6ScalarE"
 "_ZN5Eigen8internal19throw_std_bad_allocEv"
 "_ZN5Eigen8internal23triangular_solve_vectorIddxLi1ELi2ELb0ELi0EE3runExPKdxPd"
 "_ZN5Eigen8internal26triangular_solver_selectorIKNS_5BlockIKNS_6MatrixIdLin1ELin1ELi0ELin1ELin1EEELin1ELin1ELb0EEENS2_INS3_IdLin1ELi1ELi0ELin1ELi1EEELin1ELi1ELb0EEELi1ELi2ELi0ELi1EE3runERS7_RS9_"
 "_ZN5Eigen8internal29general_matrix_vector_productIxdNS0_22const_blas_data_mapperIdxLi0EEELi0ELb0EdS3_Lb0ELi0EE3runExxRKS3_S6_Pdxd"
 "_ZN5Eigen8internal29general_matrix_vector_productIxdNS0_22const_blas_data_mapperIdxLi1EEELi1ELb0EdNS2_IdxLi0EEELb0ELi0EE3runExxRKS3_RKS4_Pdxd"
 "_ZNK5Eigen10MatrixBaseINS_5BlockINS1_INS_6MatrixIdLin1ELin1ELi0ELin1ELin1EEELin1ELi1ELb1EEELin1ELi1ELb0EEEE15makeHouseholderINS_11VectorBlockIS5_Lin1EEEEEvRT_RdSC_"
 "_ZNK5Eigen19ColPivHouseholderQRINS_6MatrixIdLin1ELin1ELi0ELin1ELin1EEEE11_solve_implINS1_IdLin1ELi1ELi0ELin1ELi1EEES5_EEvRKT_RT0_"
 "_ZTCN4Rcpp8RostreamILb0EEE0_So"
 "_ZTCN4Rcpp8RostreamILb1EEE0_So"
 "_ZTIN4Rcpp10RstreambufILb0EEE"
 "_ZTIN4Rcpp10RstreambufILb1EEE"
 "_ZTIN4Rcpp8RostreamILb0EEE"
 "_ZTIN4Rcpp8RostreamILb1EEE"
 "_ZTISt9bad_alloc"
 "_ZTISt9exception"
 "_ZTSN4Rcpp10RstreambufILb0EEE"
 "_ZTSN4Rcpp10RstreambufILb1EEE"
 "_ZTSN4Rcpp8RostreamILb0EEE"
 "_ZTSN4Rcpp8RostreamILb1EEE"
 "_ZTSSt9bad_alloc"
 "_ZTSSt9exception"
 "_ZTTN4Rcpp8RostreamILb0EEE"
 "_ZTTN4Rcpp8RostreamILb1EEE"
 "_ZTv0_n24_N4Rcpp8RostreamILb0EED0Ev"
 "_ZTv0_n24_N4Rcpp8RostreamILb0EED1Ev"
 "_ZTv0_n24_N4Rcpp8RostreamILb1EED0Ev"
 "_ZTv0_n24_N4Rcpp8RostreamILb1EED1Ev"
 "_ZTVN4Rcpp10RstreambufILb0EEE"
 "_ZTVN4Rcpp10RstreambufILb1EEE"
 "_ZTVN4Rcpp8RostreamILb0EEE"
 "_ZTVN4Rcpp8RostreamILb1EEE"
 "_Z15get_value_indexRN5Eigen6MatrixIdLin1ELi1ELi0ELin1ELi1EEEd"
 "_Z16MatrixXd2PointerN5Eigen6MatrixIdLin1ELin1ELi0ELin1ELin1EEEPd"
 "_Z16MatrixXi2PointerN5Eigen6MatrixIiLin1ELin1ELi0ELin1ELin1EEEPi"
 "_Z16Pointer2MatrixXdPdii"
 "_Z16Pointer2MatrixXiPiii"
 "_Z16Pointer2VectorXdPdi"
 "_Z16Pointer2VectorXiPii"
 "_Z16slice_assignmentRN5Eigen6MatrixIdLin1ELi1ELi0ELin1ELi1EEERNS0_IiLin1ELi1ELi0ELin1ELi1EEEd"
 "_Z16VectorXd2PointerN5Eigen6MatrixIdLin1ELi1ELi0ELin1ELi1EEEPd"
 "_Z16VectorXi2PointerN5Eigen6MatrixIiLin1ELi1ELi0ELin1ELi1EEEPi"
 "_Z3PhiRN5Eigen6MatrixIdLin1ELin1ELi0ELin1ELin1EEENS0_IiLin1ELi1ELi0ELin1ELi1EEES3_iiidSt6vectorIS1_SaIS1_EE"
 "_Z5max_kRN5Eigen6MatrixIdLin1ELi1ELi0ELin1ELi1EEEiRNS0_IiLin1ELi1ELi0ELin1ELi1EEE"
 "_Z5sliceRN5Eigen6MatrixIdLin1ELi1ELi0ELin1ELi1EEERNS0_IiLin1ELi1ELi0ELin1ELi1EEE"
 "_Z5X_segRN5Eigen6MatrixIdLin1ELin1ELi0ELin1ELin1EEEiRNS0_IiLin1ELi1ELi0ELin1ELi1EEE"
 "_Z6invPhiRSt6vectorIN5Eigen6MatrixIdLin1ELin1ELi0ELin1ELin1EEESaIS2_EEi"
 "_Z8find_indRN5Eigen6MatrixIiLin1ELi1ELi0ELin1ELi1EEES2_S2_ii"
 "_Z9group_XTXRN5Eigen6MatrixIdLin1ELin1ELi0ELin1ELin1EEENS0_IiLin1ELi1ELi0ELin1ELi1EEES3_iiii"
 "_Z9row_sliceRN5Eigen6MatrixIdLin1ELin1ELi0ELin1ELin1EEERNS0_IiLin1ELi1ELi0ELin1ELi1EEE"
 "_ZGVZN5Eigen8internal20manage_caching_sizesENS_6ActionEPxS2_S2_E12m_cacheSizes"
 "_ZN5Eigen10MatrixBaseINS_5BlockINS_6MatrixIdLi2ELi2ELi0ELi2ELi2EEELi2ELin1ELb1EEEE26applyHouseholderOnTheRightINS1_INS1_IS3_Li2ELi1ELb1EEELin1ELi1ELb0EEEEEvRKT_RKdPd"
 "_ZN5Eigen10MatrixBaseINS_5BlockINS_6MatrixIdLi2ELi2ELi0ELi2ELi2EEELin1ELin1ELb0EEEE25applyHouseholderOnTheLeftINS_11VectorBlockINS1_IS3_Li2ELi1ELb1EEELin1EEEEEvRKT_RKdPd"
 "_ZN5Eigen10MatrixBaseINS_5BlockINS_6MatrixIdLi2ELi2ELi0ELi2ELi2EEELin1ELin1ELb0EEEE25applyHouseholderOnTheLeftINS1_IKS3_Lin1ELi1ELb0EEEEEvRKT_RKdPd"
 "_ZN5Eigen10MatrixBaseINS_5BlockINS_6MatrixIdLi2ELi2ELi0ELi2ELi2EEELin1ELin1ELb0EEEE26applyHouseholderOnTheRightINS1_IKS3_Lin1ELi1ELb0EEEEEvRKT_RKdPd"
 "_ZN5Eigen10MatrixBaseINS_5BlockINS_6MatrixIdLi2ELi2ELi0ELi2ELi2EEELin1ELin1ELb0EEEE26applyHouseholderOnTheRightINS2_IdLi1ELi1ELi0ELi1ELi1EEEEEvRKT_RKdPd"
 "_ZN5Eigen10MatrixBaseINS_5BlockINS_6MatrixIdLi2ELi2ELi0ELi2ELi2EEELin1ELin1ELb0EEEE26applyHouseholderOnTheRightINS2_IdLi2ELi1ELi0ELi2ELi1EEEEEvRKT_RKdPd"
 "_ZN5Eigen10MatrixBaseINS_5BlockINS_6MatrixIdLin1ELin1ELi0ELin1ELin1EEELin1ELin1ELb0EEEE25applyHouseholderOnTheLeftINS_11VectorBlockINS1_IS3_Lin1ELi1ELb1EEELin1EEEEEvRKT_RKdPd"
 "_ZN5Eigen10MatrixBaseINS_5BlockINS_6MatrixIdLin1ELin1ELi0ELin1ELin1EEELin1ELin1ELb0EEEE25applyHouseholderOnTheLeftINS1_IKS3_Lin1ELi1ELb0EEEEEvRKT_RKdPd"
 "_ZN5Eigen10MatrixBaseINS_5BlockINS_6MatrixIdLin1ELin1ELi0ELin1ELin1EEELin1ELin1ELb0EEEE26applyHouseholderOnTheRightINS1_IKS3_Lin1ELi1ELb0EEEEEvRKT_RKdPd"
 "_ZN5Eigen10MatrixBaseINS_5BlockINS_6MatrixIdLin1ELin1ELi0ELin1ELin1EEELin1ELin1ELb0EEEE26applyHouseholderOnTheRightINS2_IdLi1ELi1ELi0ELi1ELi1EEEEEvRKT_RKdPd"
 "_ZN5Eigen10MatrixBaseINS_5BlockINS_6MatrixIdLin1ELin1ELi0ELin1ELin1EEELin1ELin1ELb0EEEE26applyHouseholderOnTheRightINS2_IdLi2ELi1ELi0ELi2ELi1EEEEEvRKT_RKdPd"
 "_ZN5Eigen10MatrixBaseINS_5BlockINS_6MatrixIdLin1ELin1ELi0ELin1ELin1EEELin1ELin1ELb1EEEE26applyHouseholderOnTheRightINS1_INS1_IS3_Lin1ELi1ELb1EEELin1ELi1ELb0EEEEEvRKT_RKdPd"
 "_ZN5Eigen11EigenSolverINS_6MatrixIdLi2ELi2ELi0ELi2ELi2EEEE21doComputeEigenvectorsEv"
 "_ZN5Eigen11EigenSolverINS_6MatrixIdLi2ELi2ELi0ELi2ELi2EEEE7computeIS2_EERS3_RKNS_9EigenBaseIT_EEb"
 "_ZN5Eigen14JacobiRotationIdE10makeGivensERKdS3_PdNS_8internal10false_typeE"
 "_ZN5Eigen23HessenbergDecompositionINS_6MatrixIdLi2ELi2ELi0ELi2ELi2EEEE8_computeERS2_RNS1_IdLi1ELi1ELi0ELi1ELi1EEERNS1_IdLi1ELi2ELi1ELi1ELi2EEE"
 "_ZN5Eigen23HessenbergDecompositionINS_6MatrixIdLin1ELin1ELi0ELin1ELin1EEEE8_computeERS2_RNS1_IdLin1ELi1ELi0ELin1ELi1EEERNS1_IdLi1ELin1ELi1ELi1ELin1EEE"
 "_ZN5Eigen4LDLTINS_6MatrixIdLin1ELin1ELi0ELin1ELin1EEELi1EE7computeIS2_EERS3_RKNS_9EigenBaseIT_EE"
 "_ZN5Eigen8internal11gebp_kernelIddxNS0_16blas_data_mapperIdxLi0ELi0EEELi4ELi4ELb0ELb0EEclERKS3_PKdS8_xxxdxxxx"
 "_ZN5Eigen8internal12ldlt_inplaceILi1EE9unblockedINS_6MatrixIdLin1ELin1ELi0ELin1ELin1EEENS_14TranspositionsILin1ELin1EiEENS4_IdLin1ELi1ELi0ELin1ELi1EEEEEbRT_RT0_RT1_RNS0_10SignMatrixE"
 "_ZN5Eigen8internal13gemm_pack_lhsIdxNS0_22const_blas_data_mapperIdxLi0EEELi4ELi2ELi0ELb0ELb0EEclEPdRKS3_xxxx"
 "_ZN5Eigen8internal13gemm_pack_lhsIdxNS0_22const_blas_data_mapperIdxLi1EEELi4ELi2ELi1ELb0ELb0EEclEPdRKS3_xxxx"
 "_ZN5Eigen8internal13gemm_pack_rhsIdxNS0_16blas_data_mapperIdxLi0ELi0EEELi4ELi0ELb0ELb1EEclEPdRKS3_xxxx"
 "_ZN5Eigen8internal13gemm_pack_rhsIdxNS0_22const_blas_data_mapperIdxLi0EEELi4ELi0ELb0ELb0EEclEPdRKS3_xxxx"
 "_ZN5Eigen8internal13gemm_pack_rhsIdxNS0_22const_blas_data_mapperIdxLi1EEELi4ELi1ELb0ELb0EEclEPdRKS3_xxxx"
 "_ZN5Eigen8internal13isfinite_implIdEEbRKSt7complexIT_E"
 "_ZN5Eigen8internal15queryCacheSizesERiS1_S1_"
 "_ZN5Eigen8internal19gemv_dense_selectorILi2ELi1ELb1EE3runINS_9TransposeIKNS_5BlockINS5_INS_6MatrixIdLin1ELin1ELi0ELin1ELin1EEELin1ELin1ELb0EEELin1ELin1ELb0EEEEENS4_IKNS4_IKNS5_IKS7_Lin1ELi1ELb0EEEEEEENS4_INS_3MapINS6_IdLi1ELin1ELi1ELi1ELin1EEELi0ENS_6StrideILi0ELi0EEEEEEEEEvRKT_RKT0_RT1_RKNSU_6ScalarE"
 "_ZN5Eigen8internal19gemv_dense_selectorILi2ELi1ELb1EE3runINS_9TransposeIKNS_5BlockINS5_INS_6MatrixIdLin1ELin1ELi0ELin1ELin1EEELin1ELin1ELb0EEELin1ELin1ELb0EEEEENS4_IKNS4_IKNS5_INS5_IS7_Lin1ELi1ELb1EEELin1ELi1ELb0EEEEEEENS4_INS_3MapINS6_IdLi1ELin1ELi1ELi1ELin1EEELi0ENS_6StrideILi0ELi0EEEEEEEEEvRKT_RKT0_RT1_RKNSU_6ScalarE"
 "_ZN5Eigen8internal19matrix_sqrt_computeINS_6MatrixIdLin1ELin1ELi0ELin1ELin1EEELi0EE3runIS3_EEvRKS3_RT_"
 "_ZN5Eigen8internal19throw_std_bad_allocEv"
 "_ZN5Eigen8internal20generic_product_implINS_7ProductINS_6MatrixIdLin1ELin1ELi0ELin1ELin1EEES4_Li0EEENS_9TransposeIKS4_EENS_10DenseShapeES9_Li8EE13scaleAndAddToINS3_IdLin1ELin1ELi1ELin1ELin1EEEEEvRT_RKS5_RKS8_RKd"
 "_ZN5Eigen8internal23triangular_solve_matrixIdxLi1ELi5ELb0ELi0ELi0EE3runExxPKdxPdxRNS0_15level3_blockingIddEE"
 "_ZN5Eigen8internal23triangular_solve_matrixIdxLi1ELi6ELb0ELi1ELi0EE3runExxPKdxPdxRNS0_15level3_blockingIddEE"
 "_ZN5Eigen8internal23triangular_solve_vectorIddxLi1ELi2ELb0ELi0EE3runExPKdxPd"
 "_ZN5Eigen8internal23triangular_solve_vectorIddxLi1ELi5ELb0ELi0EE3runExPKdxPd"
 "_ZN5Eigen8internal26triangular_solver_selectorIKNS_5BlockIKNS_6MatrixIdLi2ELi2ELi0ELi2ELi2EEELin1ELin1ELb0EEENS2_INS3_IdLi2ELi1ELi0ELi2ELi1EEELin1ELi1ELb0EEELi1ELi2ELi0ELi1EE3runERS7_RS9_"
 "_ZN5Eigen8internal26triangular_solver_selectorIKNS_5BlockIKNS_6MatrixIdLi2ELi2ELi0ELi2ELi2EEELin1ELin1ELb0EEENS2_INS3_IdLi2ELi1ELi0ELi2ELi1EEELin1ELi1ELb0EEELi1ELi5ELi0ELi1EE3runERS7_RS9_"
 "_ZN5Eigen8internal26triangular_solver_selectorIKNS_5BlockIKNS_6MatrixIdLi4ELi4ELi0ELi4ELi4EEELin1ELin1ELb0EEENS2_INS3_IdLi4ELi1ELi0ELi4ELi1EEELin1ELi1ELb0EEELi1ELi2ELi0ELi1EE3runERS7_RS9_"
 "_ZN5Eigen8internal26triangular_solver_selectorIKNS_5BlockIKNS_6MatrixIdLi4ELi4ELi0ELi4ELi4EEELin1ELin1ELb0EEENS2_INS3_IdLi4ELi1ELi0ELi4ELi1EEELin1ELi1ELb0EEELi1ELi5ELi0ELi1EE3runERS7_RS9_"
 "_ZN5Eigen8internal29general_matrix_matrix_productIxdLi0ELb0EdLi0ELb0ELi0EE3runExxxPKdxS4_xPdxdRNS0_15level3_blockingIddEEPNS0_16GemmParallelInfoIxEE"
 "_ZN5Eigen8internal29general_matrix_matrix_productIxdLi0ELb0EdLi1ELb0ELi0EE3runExxxPKdxS4_xPdxdRNS0_15level3_blockingIddEEPNS0_16GemmParallelInfoIxEE"
 "_ZN5Eigen8internal29general_matrix_matrix_productIxdLi1ELb0EdLi0ELb0ELi0EE3runExxxPKdxS4_xPdxdRNS0_15level3_blockingIddEEPNS0_16GemmParallelInfoIxEE"
 "_ZN5Eigen8internal29general_matrix_vector_productIxdNS0_22const_blas_data_mapperIdxLi0EEELi0ELb0EdNS2_IdxLi1EEELb0ELi0EE3runExxRKS3_RKS4_Pdxd"
 "_ZN5Eigen8internal29general_matrix_vector_productIxdNS0_22const_blas_data_mapperIdxLi0EEELi0ELb0EdS3_Lb0ELi0EE3runExxRKS3_S6_Pdxd"
 "_ZN5Eigen8internal29general_matrix_vector_productIxdNS0_22const_blas_data_mapperIdxLi1EEELi1ELb0EdNS2_IdxLi0EEELb0ELi0EE3runExxRKS3_RKS4_Pdxd"
 "_ZN5Eigen8internal37evaluateProductBlockingSizesHeuristicIddLi1ExEEvRT2_S3_S3_S2_"
 "_ZN5Eigen8internal37evaluateProductBlockingSizesHeuristicIddLi4ExEEvRT2_S3_S3_S2_"
 "_ZN5Eigen8internal41matrix_sqrt_quasi_triangular_off_diagonalINS_6MatrixIdLin1ELin1ELi0ELin1ELin1EEES3_EEvRKT_RT0_"
 "_ZN5Eigen8internal47matrix_sqrt_quasi_triangular_2x2_diagonal_blockINS_6MatrixIdLin1ELin1ELi0ELin1ELin1EEES3_EEvRKT_NS4_5IndexERT0_"
 "_ZN5Eigen8internal51matrix_sqrt_quasi_triangular_1x1_off_diagonal_blockINS_6MatrixIdLin1ELin1ELi0ELin1ELin1EEES3_EEvRKT_NS4_5IndexES7_RT0_"
 "_ZN5Eigen8internal51matrix_sqrt_quasi_triangular_1x2_off_diagonal_blockINS_6MatrixIdLin1ELin1ELi0ELin1ELin1EEES3_EEvRKT_NS4_5IndexES7_RT0_"
 "_ZN5Eigen8internal51matrix_sqrt_quasi_triangular_2x1_off_diagonal_blockINS_6MatrixIdLin1ELin1ELi0ELin1ELin1EEES3_EEvRKT_NS4_5IndexES7_RT0_"
 "_ZN5Eigen8internal51matrix_sqrt_quasi_triangular_2x2_off_diagonal_blockINS_6MatrixIdLin1ELin1ELi0ELin1ELin1EEES3_EEvRKT_NS4_5IndexES7_RT0_"
 "_ZN5Eigen8internal53matrix_sqrt_quasi_triangular_solve_auxiliary_equationINS_6MatrixIdLi2ELi2ELi0ELi2ELi2EEEEEvRT_RKS4_S7_S7_"
 "_ZN5Eigen9FullPivLUINS_6MatrixIdLi2ELi2ELi0ELi2ELi2EEEE14computeInPlaceEv"
 "_ZN5Eigen9FullPivLUINS_6MatrixIdLi4ELi4ELi0ELi4ELi4EEEE14computeInPlaceEv"
 "_ZN5Eigen9RealSchurINS_6MatrixIdLi2ELi2ELi0ELi2ELi2EEEE20performFrancisQRStepExxxbRKNS1_IdLi3ELi1ELi0ELi3ELi1EEEPd"
 "_ZN5Eigen9RealSchurINS_6MatrixIdLi2ELi2ELi0ELi2ELi2EEEE21computeFromHessenbergINS_8internal40HessenbergDecompositionMatrixHReturnTypeIS2_EENS_19HouseholderSequenceIS2_NS1_IdLi1ELi1ELi0ELi1ELi1EEELi1EEEEERS3_RKT_RKT0_b"
 "_ZN5Eigen9RealSchurINS_6MatrixIdLi2ELi2ELi0ELi2ELi2EEEE7computeIS2_EERS3_RKNS_9EigenBaseIT_EEb"
 "_ZN5Eigen9RealSchurINS_6MatrixIdLin1ELin1ELi0ELin1ELin1EEEE20performFrancisQRStepExxxbRKNS1_IdLi3ELi1ELi0ELi3ELi1EEEPd"
 "_ZN5Eigen9RealSchurINS_6MatrixIdLin1ELin1ELi0ELin1ELin1EEEE21computeFromHessenbergINS_8internal40HessenbergDecompositionMatrixHReturnTypeIS2_EENS_19HouseholderSequenceIS2_NS1_IdLin1ELi1ELi0ELin1ELi1EEELi1EEEEERS3_RKT_RKT0_b"
 "_ZN5Eigen9RealSchurINS_6MatrixIdLin1ELin1ELi0ELin1ELin1EEEE7computeIS2_EERS3_RKNS_9EigenBaseIT_EEb"
 "_ZNK5Eigen10MatrixBaseINS_5BlockINS1_INS_6MatrixIdLi2ELi2ELi0ELi2ELi2EEELi2ELi1ELb1EEELin1ELi1ELb0EEEE15makeHouseholderINS_11VectorBlockIS5_Lin1EEEEEvRT_RdSC_"
 "_ZNK5Eigen10MatrixBaseINS_5BlockINS1_INS_6MatrixIdLin1ELin1ELi0ELin1ELin1EEELin1ELi1ELb1EEELin1ELi1ELb0EEEE15makeHouseholderINS_11VectorBlockIS5_Lin1EEEEEvRT_RdSC_"
 "_ZNK5Eigen10MatrixBaseINS_6MatrixIdLi2ELi1ELi0ELi2ELi1EEEE15makeHouseholderINS1_IdLi1ELi1ELi0ELi1ELi1EEEEEvRT_RdS8_"
 "_ZNK5Eigen10MatrixBaseINS_6MatrixIdLi3ELi1ELi0ELi3ELi1EEEE15makeHouseholderINS1_IdLi2ELi1ELi0ELi2ELi1EEEEEvRT_RdS8_"
 "_ZNK5Eigen11EigenSolverINS_6MatrixIdLi2ELi2ELi0ELi2ELi2EEEE12eigenvectorsEv"
 "_ZNK5Eigen19HouseholderSequenceINS_6MatrixIdLin1ELin1ELi0ELin1ELin1EEENS1_IdLin1ELi1ELi0ELin1ELi1EEELi1EE6evalToIS2_S3_EEvRT_RT0_"
 "_ZNK5Eigen4LDLTINS_6MatrixIdLin1ELin1ELi0ELin1ELin1EEELi1EE11_solve_implINS_14CwiseNullaryOpINS_8internal18scalar_identity_opIdEES2_EES2_EEvRKT_RT0_"
 "_ZNK5Eigen9FullPivLUINS_6MatrixIdLi2ELi2ELi0ELi2ELi2EEEE11_solve_implINS_9TransposeINS1_IdLi1ELi2ELi1ELi1ELi2EEEEENS5_INS_5BlockINS1_IdLin1ELin1ELi0ELin1ELin1EEELi1ELi2ELb0EEEEEEEvRKT_RT0_"
 "_ZNK5Eigen9FullPivLUINS_6MatrixIdLi2ELi2ELi0ELi2ELi2EEEE11_solve_implINS1_IdLi2ELi1ELi0ELi2ELi1EEENS_5BlockINS1_IdLin1ELin1ELi0ELin1ELin1EEELi2ELi1ELb0EEEEEvRKT_RT0_"
 "_ZNK5Eigen9FullPivLUINS_6MatrixIdLi4ELi4ELi0ELi4ELi4EEEE11_solve_implINS1_IdLi4ELi1ELi0ELi4ELi1EEES5_EEvRKT_RT0_"
 "_ZNSt6vectorIN5Eigen6MatrixIdLin1ELin1ELi0ELin1ELin1EEESaIS2_EED1Ev"
 "_ZSt13__adjust_heapIPixiN9__gnu_cxx5__ops15_Iter_less_iterEEvT_T0_S5_T1_T2_"
 "_ZTISt9bad_alloc"
 "_ZTISt9exception"
 "_ZTSSt9bad_alloc"
 "_ZTSSt9exception"
 "_ZZN5Eigen8internal20manage_caching_sizesENS_6ActionEPxS2_S2_E12m_cacheSizes"
